(dp0
I0
(dp1
I0
(dp2
S'links'
p3
(dp4
sS'value'
p5
I0
ssI1
(dp6
g3
(dp7
sg5
I0
ssI2
(dp8
g3
(dp9
sg5
I0
ssI3
(dp10
g3
(dp11
sg5
I0
ssI4
(dp12
g3
(dp13
sg5
I0
ssI5
(dp14
g3
(dp15
sg5
I0
ssI6
(dp16
g3
(dp17
sg5
I0
ssI7
(dp18
g3
(dp19
sg5
I0
ssI8
(dp20
g3
(dp21
sg5
I0
ssI9
(dp22
g3
(dp23
sg5
I0
ssI10
(dp24
g3
(dp25
sg5
I0
ssI11
(dp26
g3
(dp27
sg5
I0
ssI12
(dp28
g3
(dp29
sg5
I0
ssI13
(dp30
g3
(dp31
sg5
I0
ssI14
(dp32
g3
(dp33
sg5
I0
ssI15
(dp34
g3
(dp35
sg5
I0
ssI16
(dp36
g3
(dp37
sg5
I0
ssI17
(dp38
g3
(dp39
sg5
I0
ssI18
(dp40
g3
(dp41
sg5
I0
ssI19
(dp42
g3
(dp43
sg5
I0
ssI20
(dp44
g3
(dp45
sg5
I0
ssI21
(dp46
g3
(dp47
sg5
I0
ssI22
(dp48
g3
(dp49
sg5
I0
ssI23
(dp50
g3
(dp51
sg5
I0
ssI24
(dp52
g3
(dp53
sg5
I0
ssI25
(dp54
g3
(dp55
sg5
I0
ssI26
(dp56
g3
(dp57
sg5
I0
ssI27
(dp58
g3
(dp59
sg5
I0
ssI28
(dp60
g3
(dp61
sg5
I0
ssI29
(dp62
g3
(dp63
sg5
I0
ssI30
(dp64
g3
(dp65
sg5
I0
ssI31
(dp66
g3
(dp67
sg5
I0
ssI32
(dp68
g3
(dp69
sg5
I0
ssI33
(dp70
g3
(dp71
sg5
I0
ssI34
(dp72
g3
(dp73
sg5
I0
ssI35
(dp74
g3
(dp75
sg5
I0
ssI36
(dp76
g3
(dp77
sg5
I0
ssI37
(dp78
g3
(dp79
sg5
I0
ssI38
(dp80
g3
(dp81
sg5
I0
ssI39
(dp82
g3
(dp83
sg5
I0
ssI40
(dp84
g3
(dp85
sg5
I0
ssI41
(dp86
g3
(dp87
sg5
I0
ssI42
(dp88
g3
(dp89
sg5
I0
ssI43
(dp90
g3
(dp91
sg5
I0
ssI44
(dp92
g3
(dp93
sg5
I0
sssI1
(dp94
I0
(dp95
g3
(dp96
I0
F0.6400000000000001
sI1
F-0.51
sI2
F0.31000000000000005
sI3
F0.8099999999999999
sI4
F-0.1
sI5
F0.45000000000000007
sI6
F0.7999999999999999
sI7
F-1.5900000000000005
sI8
F-1.3100000000000003
sI9
F1.0699999999999998
sI10
F0.7200000000000001
sI11
F-0.83
sI12
F0.42000000000000004
sI13
F-0.16
sI14
F-0.12000000000000005
sI15
F-0.36
sI16
F-0.10000000000000014
sI17
F-0.25000000000000006
sI18
F-0.33
sI19
F-1.3900000000000001
sI20
F0.8
sI21
F0.6600000000000001
sI22
F0.58
sI23
F-0.9800000000000001
sI24
F-1.4800000000000004
sI25
F-1.2400000000000002
sI26
F-1.2100000000000002
sI27
F-0.03
sI28
F-0.7799999999999999
sI29
F0.9400000000000001
sI30
F-2.0100000000000007
sI31
F0.4600000000000002
sI32
F-0.5400000000000001
sI33
F0.009999999999999981
sI34
F0.13999999999999996
sI35
F0.029999999999999888
sI36
F0.42000000000000015
sI37
F0.8500000000000001
sI38
F1.8700000000000006
sI39
F0.4
sI40
F0.8700000000000001
sI41
F-0.36
sI42
F-1.06
sI43
F0.5
sI44
F0.42000000000000004
ssg5
I0
ssI1
(dp97
g3
(dp98
I0
F1.4600000000000002
sI1
F-0.7799999999999999
sI2
F0.7599999999999999
sI3
F0.8099999999999999
sI4
F-1.7800000000000007
sI5
F0.8699999999999999
sI6
F-0.6400000000000001
sI7
F0.59
sI8
F1.6200000000000006
sI9
F2.230000000000001
sI10
F1.5900000000000005
sI11
F0.71
sI12
F0.39000000000000024
sI13
F0.33999999999999997
sI14
F0.33000000000000007
sI15
F-0.8200000000000001
sI16
F1.2500000000000002
sI17
F-0.4900000000000002
sI18
F1.05
sI19
F0.83
sI20
F-1.18
sI21
F0.07
sI22
F1.1400000000000001
sI23
F0.58
sI24
F-0.44000000000000017
sI25
F0.9599999999999999
sI26
F0.32
sI27
F0.62
sI28
F0.3300000000000002
sI29
F0.7799999999999999
sI30
F-0.3400000000000001
sI31
F-0.7299999999999999
sI32
F1.6100000000000005
sI33
F-0.6699999999999999
sI34
F0.8800000000000001
sI35
F1.5600000000000003
sI36
F-0.79
sI37
F0.8400000000000001
sI38
F-2.440000000000001
sI39
F0.51
sI40
F0.30999999999999983
sI41
F0.18000000000000002
sI42
F0.19999999999999998
sI43
F0.8999999999999999
sI44
F-0.6499999999999999
ssg5
I0
ssI2
(dp99
g3
(dp100
I0
F0.91
sI1
F0.33000000000000007
sI2
F0.76
sI3
F-1.12
sI4
F-0.9800000000000001
sI5
F-1.5100000000000005
sI6
F0.8600000000000001
sI7
F0.6300000000000001
sI8
F1.03
sI9
F1.4700000000000002
sI10
F1.3900000000000001
sI11
F-1.09
sI12
F0.28000000000000025
sI13
F1.6600000000000004
sI14
F-0.29000000000000004
sI15
F-0.12999999999999995
sI16
F0.28
sI17
F-0.15000000000000005
sI18
F-0.4
sI19
F-0.0399999999999999
sI20
F1.01
sI21
F-1.4800000000000004
sI22
F1.4500000000000004
sI23
F-2.190000000000001
sI24
F0.6000000000000001
sI25
F-1.01
sI26
F-0.58
sI27
F-0.36
sI28
F0.17
sI29
F-0.44999999999999984
sI30
F-1.9200000000000008
sI31
F0.77
sI32
F1.3300000000000003
sI33
F-0.6599999999999999
sI34
F0.92
sI35
F-0.48
sI36
F2.020000000000001
sI37
F0.54
sI38
F0.07
sI39
F1.5700000000000003
sI40
F-0.17999999999999997
sI41
F-1.2100000000000002
sI42
F-1.3800000000000003
sI43
F0.59
sI44
F1.6200000000000006
ssg5
I0
ssI3
(dp101
g3
(dp102
I0
F-1.9800000000000009
sI1
F1.3600000000000003
sI2
F0.24000000000000019
sI3
F-0.10999999999999976
sI4
F-0.6499999999999999
sI5
F0.03
sI6
F0.8400000000000001
sI7
F0.17
sI8
F-0.73
sI9
F0.24000000000000019
sI10
F0.21
sI11
F0.4600000000000001
sI12
F-0.03
sI13
F-0.43000000000000005
sI14
F-1.07
sI15
F-0.7300000000000001
sI16
F-1.2
sI17
F1.6800000000000004
sI18
F-1.3700000000000003
sI19
F0.6300000000000001
sI20
F-0.14
sI21
F0.8599999999999999
sI22
F-0.7200000000000001
sI23
F-0.10000000000000003
sI24
F1.36
sI25
F-1.1500000000000001
sI26
F-1.12
sI27
F0.38
sI28
F-0.6
sI29
F0.2500000000000001
sI30
F1.15
sI31
F1.07
sI32
F0.3400000000000001
sI33
F-0.45999999999999996
sI34
F0.8200000000000001
sI35
F0.7999999999999999
sI36
F-1.2800000000000002
sI37
F1.3800000000000003
sI38
F1.9500000000000006
sI39
F0.27
sI40
F-0.3800000000000001
sI41
F-1.0299999999999998
sI42
F-0.11000000000000004
sI43
F-1.3600000000000003
sI44
F-0.10000000000000003
ssg5
I0
ssI4
(dp103
g3
(dp104
I0
F-0.19000000000000014
sI1
F-0.7
sI2
F1.9700000000000006
sI3
F-1.02
sI4
F-1.5300000000000005
sI5
F0.9400000000000001
sI6
F0.17
sI7
F0.6799999999999999
sI8
F-0.29000000000000015
sI9
F0.10999999999999993
sI10
F-1.4800000000000002
sI11
F1.1600000000000001
sI12
F0.21000000000000005
sI13
F0.4
sI14
F-0.51
sI15
F0.91
sI16
F0.9899999999999999
sI17
F-0.43000000000000005
sI18
F0.5400000000000001
sI19
F-0.06
sI20
F0.6500000000000001
sI21
F-0.23000000000000007
sI22
F-0.42000000000000004
sI23
F0.5800000000000002
sI24
F-1.28
sI25
F0.8200000000000001
sI26
F0.55
sI27
F0.22999999999999995
sI28
F-0.7599999999999999
sI29
F0.3899999999999999
sI30
F-0.61
sI31
F-0.3800000000000001
sI32
F-0.4900000000000002
sI33
F-1.6700000000000006
sI34
F-0.6100000000000001
sI35
F-0.04000000000000006
sI36
F-0.18000000000000002
sI37
F1.01
sI38
F-1.25
sI39
F-0.3
sI40
F-1.7300000000000006
sI41
F0.38
sI42
F0.24000000000000019
sI43
F0.17000000000000023
sI44
F0.08999999999999997
ssg5
I0
ssI5
(dp105
g3
(dp106
I0
F-0.7299999999999999
sI1
F-1.2700000000000002
sI2
F-0.5
sI3
F-1.6400000000000006
sI4
F-0.019999999999999934
sI5
F1.6000000000000005
sI6
F0.33
sI7
F0.59
sI8
F0.07
sI9
F0.7899999999999999
sI10
F0.8400000000000001
sI11
F0.53
sI12
F-0.11999999999999977
sI13
F0.6700000000000002
sI14
F0.29000000000000004
sI15
F1.2100000000000002
sI16
F0.8500000000000001
sI17
F-0.7500000000000001
sI18
F0.23000000000000007
sI19
F-0.3600000000000001
sI20
F0.63
sI21
F0.01999999999999999
sI22
F-0.7000000000000001
sI23
F-1.6000000000000003
sI24
F0.26
sI25
F0.69
sI26
F1.3900000000000003
sI27
F1.1600000000000001
sI28
F1.3200000000000003
sI29
F1.4100000000000004
sI30
F0.6100000000000001
sI31
F0.20000000000000004
sI32
F-1.6600000000000006
sI33
F1.2100000000000002
sI34
F0.31000000000000016
sI35
F-0.49
sI36
F0.8699999999999999
sI37
F0.9199999999999998
sI38
F-0.92
sI39
F-0.45000000000000007
sI40
F0.19000000000000003
sI41
F-1.1700000000000002
sI42
F-0.3500000000000002
sI43
F0.54
sI44
F-1.3100000000000003
ssg5
I0
ssI6
(dp107
g3
(dp108
I0
F0.48
sI1
F1.2200000000000002
sI2
F0.1299999999999999
sI3
F-0.5499999999999998
sI4
F0.54
sI5
F-0.11000000000000004
sI6
F0.38
sI7
F1.0799999999999998
sI8
F1.5700000000000003
sI9
F0.32000000000000006
sI10
F0.14
sI11
F-0.9400000000000001
sI12
F-0.07999999999999985
sI13
F1.3700000000000003
sI14
F-0.3800000000000001
sI15
F0.22
sI16
F-0.51
sI17
F-0.030000000000000054
sI18
F-1.5400000000000005
sI19
F0.8999999999999999
sI20
F0.6400000000000001
sI21
F-0.62
sI22
F-1.9200000000000008
sI23
F-0.7599999999999999
sI24
F1.6000000000000003
sI25
F1.3100000000000003
sI26
F1.9100000000000008
sI27
F0.39
sI28
F0.54
sI29
F-0.5599999999999999
sI30
F-0.13000000000000006
sI31
F1.3100000000000003
sI32
F0.7499999999999999
sI33
F-1.2900000000000003
sI34
F-0.9899999999999999
sI35
F0.6100000000000001
sI36
F-1.03
sI37
F0.62
sI38
F-1.3300000000000003
sI39
F-0.009999999999999981
sI40
F-0.4
sI41
F-0.3800000000000002
sI42
F0.72
sI43
F-0.4
sI44
F-0.92
ssg5
I0
ssI7
(dp109
g3
(dp110
I0
F-0.3600000000000001
sI1
F0.61
sI2
F-0.19000000000000003
sI3
F0.51
sI4
F0.17
sI5
F-0.8300000000000001
sI6
F0.5999999999999999
sI7
F0.53
sI8
F-0.59
sI9
F0.97
sI10
F0.20999999999999994
sI11
F1.1600000000000001
sI12
F0.5600000000000002
sI13
F-0.30000000000000004
sI14
F-1.9800000000000009
sI15
F0.8999999999999999
sI16
F0.16
sI17
F0.7899999999999999
sI18
F-1.7800000000000007
sI19
F-1.04
sI20
F1.4000000000000001
sI21
F-0.45999999999999996
sI22
F-1.8700000000000008
sI23
F-0.18000000000000002
sI24
F0.8500000000000001
sI25
F-1.27
sI26
F-0.35
sI27
F-1.4600000000000002
sI28
F0.7999999999999999
sI29
F-0.5700000000000001
sI30
F-0.7899999999999999
sI31
F-0.3699999999999999
sI32
F0.93
sI33
F-0.10000000000000003
sI34
F-1.2100000000000002
sI35
F0.32000000000000006
sI36
F-0.45999999999999996
sI37
F-0.3800000000000001
sI38
F-1.07
sI39
F-1.0
sI40
F-0.08000000000000018
sI41
F-1.3200000000000003
sI42
F0.42000000000000004
sI43
F1.1400000000000001
sI44
F1.11
ssg5
I0
ssI8
(dp111
g3
(dp112
I0
F0.22000000000000006
sI1
F0.59
sI2
F-0.5700000000000001
sI3
F-1.03
sI4
F0.8300000000000001
sI5
F0.7899999999999999
sI6
F-0.11999999999999994
sI7
F-0.33000000000000007
sI8
F-1.2600000000000002
sI9
F-0.3500000000000002
sI10
F-0.9799999999999999
sI11
F1.2200000000000002
sI12
F1.2200000000000002
sI13
F-0.54
sI14
F0.7
sI15
F-0.13000000000000006
sI16
F1.1300000000000001
sI17
F-1.1500000000000001
sI18
F0.6799999999999999
sI19
F0.03
sI20
F-1.4200000000000004
sI21
F-0.24000000000000007
sI22
F-0.44000000000000006
sI23
F-0.09000000000000014
sI24
F0.26
sI25
F0.19000000000000003
sI26
F1.1199999999999999
sI27
F-0.43000000000000005
sI28
F0.6599999999999999
sI29
F-1.4500000000000004
sI30
F0.08999999999999997
sI31
F-0.07999999999999996
sI32
F-0.0799999999999999
sI33
F0.28
sI34
F1.6900000000000006
sI35
F-1.2400000000000002
sI36
F-0.5700000000000001
sI37
F1.15
sI38
F0.23000000000000018
sI39
F-0.13
sI40
F-0.14000000000000007
sI41
F0.36
sI42
F0.49
sI43
F0.049999999999999906
sI44
F0.29000000000000004
ssg5
I0
ssI9
(dp113
g3
(dp114
I0
F1.01
sI1
F1.01
sI2
F0.8300000000000001
sI3
F0.6200000000000001
sI4
F-1.5800000000000005
sI5
F-0.9600000000000001
sI6
F-0.01999999999999988
sI7
F-1.02
sI8
F0.12000000000000005
sI9
F0.8799999999999999
sI10
F0.23000000000000018
sI11
F0.019999999999999768
sI12
F-1.0999999999999999
sI13
F-0.51
sI14
F-0.17
sI15
F-0.75
sI16
F0.14000000000000007
sI17
F0.31000000000000005
sI18
F0.01999999999999999
sI19
F0.45999999999999996
sI20
F-0.08000000000000002
sI21
F0.23000000000000018
sI22
F0.27
sI23
F0.61
sI24
F-0.17000000000000023
sI25
F0.5
sI26
F0.3200000000000002
sI27
F-1.6800000000000004
sI28
F0.7400000000000001
sI29
F0.1399999999999999
sI30
F0.38
sI31
F1.12
sI32
F-0.7100000000000001
sI33
F2.220000000000001
sI34
F-1.2200000000000002
sI35
F-1.4600000000000004
sI36
F-0.7100000000000001
sI37
F-2.2600000000000007
sI38
F-0.32000000000000006
sI39
F1.1
sI40
F0.3900000000000001
sI41
F0.8600000000000001
sI42
F1.0699999999999998
sI43
F-0.48
sI44
F0.6100000000000001
ssg5
I0
ssI10
(dp115
g3
(dp116
I0
F0.62
sI1
F-1.12
sI2
F0.6199999999999999
sI3
F0.28
sI4
F0.93
sI5
F0.52
sI6
F-0.9400000000000001
sI7
F-0.16999999999999985
sI8
F0.33000000000000007
sI9
F-0.78
sI10
F0.24000000000000019
sI11
F-0.8899999999999999
sI12
F1.09
sI13
F1.3700000000000003
sI14
F0.9699999999999999
sI15
F-0.9299999999999999
sI16
F-0.93
sI17
F-1.3900000000000003
sI18
F0.58
sI19
F-0.10000000000000003
sI20
F0.72
sI21
F-0.23
sI22
F0.6
sI23
F0.5400000000000001
sI24
F-1.1400000000000001
sI25
F-0.38
sI26
F-1.28
sI27
F-1.2
sI28
F1.3877787807814457e-16
sI29
F0.9699999999999999
sI30
F-0.72
sI31
F-0.9600000000000001
sI32
F0.29000000000000004
sI33
F1.4700000000000004
sI34
F-0.8300000000000001
sI35
F-0.3699999999999999
sI36
F-0.9599999999999999
sI37
F0.21
sI38
F-0.4600000000000001
sI39
F0.45000000000000007
sI40
F1.15
sI41
F0.23000000000000007
sI42
F1.2200000000000002
sI43
F-0.09000000000000002
sI44
F1.7800000000000007
ssg5
I0
ssI11
(dp117
g3
(dp118
I0
F0.8899999999999999
sI1
F-1.6000000000000005
sI2
F0.16999999999999996
sI3
F0.6200000000000001
sI4
F-0.6699999999999998
sI5
F0.5700000000000002
sI6
F-0.9500000000000001
sI7
F-0.7599999999999999
sI8
F-0.7799999999999999
sI9
F-0.2700000000000001
sI10
F0.36
sI11
F-1.4500000000000004
sI12
F-0.25000000000000006
sI13
F-0.33
sI14
F-0.28
sI15
F-0.27
sI16
F1.4200000000000004
sI17
F-1.4900000000000002
sI18
F-0.7800000000000001
sI19
F0.7899999999999999
sI20
F0.6700000000000002
sI21
F-0.21000000000000005
sI22
F-1.11
sI23
F1.6600000000000006
sI24
F0.28
sI25
F-1.0899999999999999
sI26
F-0.6299999999999999
sI27
F0.52
sI28
F-0.27000000000000013
sI29
F0.32000000000000006
sI30
F0.33999999999999997
sI31
F0.7999999999999999
sI32
F-0.7499999999999999
sI33
F0.6
sI34
F0.31
sI35
F0.36
sI36
F-0.17000000000000012
sI37
F2.290000000000001
sI38
F0.12999999999999995
sI39
F-0.10999999999999976
sI40
F0.71
sI41
F-1.6000000000000003
sI42
F-1.1900000000000002
sI43
F-1.4500000000000004
sI44
F0.9700000000000001
ssg5
I0
ssI12
(dp119
g3
(dp120
I0
F0.72
sI1
F0.4299999999999998
sI2
F-1.4800000000000002
sI3
F-0.7
sI4
F0.16
sI5
F0.9899999999999999
sI6
F0.5399999999999999
sI7
F0.6200000000000001
sI8
F-0.6599999999999999
sI9
F0.32000000000000006
sI10
F0.24999999999999997
sI11
F-0.18000000000000002
sI12
F0.7100000000000001
sI13
F0.14
sI14
F-0.010000000000000037
sI15
F1.8400000000000007
sI16
F0.4
sI17
F-0.9199999999999999
sI18
F-0.74
sI19
F-0.9299999999999998
sI20
F0.16
sI21
F-0.14000000000000007
sI22
F0.5899999999999999
sI23
F-0.9
sI24
F-0.09000000000000025
sI25
F0.30000000000000004
sI26
F0.9699999999999999
sI27
F1.11
sI28
F-1.6600000000000006
sI29
F-0.11000000000000004
sI30
F0.5200000000000001
sI31
F0.81
sI32
F-0.72
sI33
F0.65
sI34
F1.1300000000000001
sI35
F1.4500000000000004
sI36
F-1.9200000000000008
sI37
F1.28
sI38
F0.07
sI39
F-0.2499999999999998
sI40
F0.73
sI41
F0.29000000000000004
sI42
F1.0
sI43
F-1.01
sI44
F-0.029999999999999888
ssg5
I0
ssI13
(dp121
g3
(dp122
I0
F0.8800000000000001
sI1
F-0.91
sI2
F-0.12
sI3
F0.04000000000000001
sI4
F-1.4000000000000001
sI5
F2.140000000000001
sI6
F0.26
sI7
F-1.6000000000000005
sI8
F-0.7700000000000001
sI9
F0.6800000000000002
sI10
F-0.06000000000000011
sI11
F0.84
sI12
F-0.1500000000000001
sI13
F-0.42999999999999994
sI14
F-0.26
sI15
F1.19
sI16
F0.3200000000000002
sI17
F-0.31000000000000005
sI18
F1.3600000000000003
sI19
F0.26
sI20
F-1.3500000000000003
sI21
F-0.13000000000000017
sI22
F-1.1700000000000002
sI23
F0.009999999999999981
sI24
F-0.020000000000000046
sI25
F-0.11999999999999988
sI26
F-1.01
sI27
F0.6400000000000001
sI28
F1.1300000000000001
sI29
F0.62
sI30
F-1.0699999999999998
sI31
F2.0900000000000007
sI32
F-1.09
sI33
F-0.28000000000000014
sI34
F0.3400000000000002
sI35
F0.45999999999999996
sI36
F-0.6200000000000001
sI37
F-0.12
sI38
F0.7499999999999999
sI39
F1.8000000000000005
sI40
F-0.6000000000000001
sI41
F-0.57
sI42
F1.8500000000000005
sI43
F0.18000000000000002
sI44
F-0.6800000000000002
ssg5
I0
ssI14
(dp123
g3
(dp124
I0
F-0.45999999999999996
sI1
F-0.030000000000000054
sI2
F0.37
sI3
F0.7400000000000001
sI4
F0.7599999999999999
sI5
F1.09
sI6
F-0.28000000000000025
sI7
F-1.2200000000000002
sI8
F1.6200000000000006
sI9
F1.9700000000000006
sI10
F0.93
sI11
F0.9699999999999999
sI12
F-1.8800000000000003
sI13
F-1.22
sI14
F0.4700000000000002
sI15
F-0.27000000000000024
sI16
F-2.7755575615628914e-17
sI17
F-0.27
sI18
F0.26000000000000023
sI19
F-0.7299999999999999
sI20
F-1.1300000000000001
sI21
F-0.6
sI22
F-0.82
sI23
F0.38
sI24
F-1.1800000000000002
sI25
F-0.2500000000000001
sI26
F-1.5400000000000005
sI27
F-0.14000000000000007
sI28
F0.43000000000000005
sI29
F0.48
sI30
F-0.4600000000000002
sI31
F1.07
sI32
F-0.7200000000000001
sI33
F-2.7755575615628914e-17
sI34
F1.0699999999999998
sI35
F1.9000000000000008
sI36
F-0.31000000000000005
sI37
F-0.62
sI38
F0.5700000000000002
sI39
F-0.41000000000000003
sI40
F-0.5300000000000001
sI41
F-0.37
sI42
F0.23999999999999996
sI43
F0.9899999999999999
sI44
F2.100000000000001
ssg5
I0
ssI15
(dp125
g3
(dp126
I0
F1.0
sI1
F-0.7799999999999999
sI2
F-0.9700000000000001
sI3
F0.2399999999999998
sI4
F-0.75
sI5
F-0.08000000000000013
sI6
F1.7200000000000006
sI7
F-0.0500000000000001
sI8
F0.3699999999999999
sI9
F1.7800000000000005
sI10
F-0.9
sI11
F0.29000000000000026
sI12
F-0.32
sI13
F0.20000000000000015
sI14
F-0.7999999999999999
sI15
F0.06999999999999984
sI16
F0.3800000000000001
sI17
F0.12000000000000005
sI18
F0.06
sI19
F-1.56
sI20
F-0.5900000000000002
sI21
F0.06
sI22
F-1.5200000000000005
sI23
F-1.2300000000000002
sI24
F1.9400000000000008
sI25
F-0.6799999999999999
sI26
F-0.7400000000000001
sI27
F1.3400000000000003
sI28
F-1.4500000000000004
sI29
F0.59
sI30
F0.09000000000000002
sI31
F0.8500000000000001
sI32
F-0.4
sI33
F0.7699999999999999
sI34
F-0.010000000000000037
sI35
F1.09
sI36
F-1.4300000000000002
sI37
F-1.5000000000000004
sI38
F0.31000000000000016
sI39
F-0.7700000000000001
sI40
F-0.12000000000000005
sI41
F1.5300000000000005
sI42
F-1.5300000000000005
sI43
F-1.3900000000000003
sI44
F-0.10000000000000003
ssg5
I0
ssI16
(dp127
g3
(dp128
I0
F0.9799999999999999
sI1
F-0.1499999999999999
sI2
F0.9400000000000001
sI3
F1.3100000000000003
sI4
F0.13000000000000006
sI5
F1.8400000000000007
sI6
F1.6800000000000006
sI7
F1.4100000000000004
sI8
F-1.3
sI9
F-1.2500000000000002
sI10
F-1.12
sI11
F1.6000000000000003
sI12
F-0.8900000000000001
sI13
F-0.10999999999999999
sI14
F0.5599999999999999
sI15
F1.3600000000000003
sI16
F0.5100000000000001
sI17
F0.03999999999999995
sI18
F-0.9400000000000001
sI19
F0.41000000000000003
sI20
F0.31000000000000005
sI21
F0.3200000000000002
sI22
F1.1
sI23
F-0.17999999999999997
sI24
F-1.2200000000000002
sI25
F0.5300000000000001
sI26
F-0.8899999999999999
sI27
F0.9700000000000001
sI28
F0.4600000000000001
sI29
F0.19000000000000003
sI30
F0.12
sI31
F0.09000000000000019
sI32
F0.16
sI33
F-0.64
sI34
F1.01
sI35
F0.8600000000000001
sI36
F0.41000000000000003
sI37
F-2.330000000000001
sI38
F0.93
sI39
F0.4
sI40
F0.7900000000000001
sI41
F0.26
sI42
F0.51
sI43
F0.24999999999999997
sI44
F-1.3800000000000003
ssg5
I0
ssI17
(dp129
g3
(dp130
I0
F-0.19000000000000003
sI1
F1.01
sI2
F-0.3400000000000001
sI3
F-0.7900000000000001
sI4
F0.33000000000000007
sI5
F0.6000000000000001
sI6
F0.32000000000000006
sI7
F0.08999999999999997
sI8
F1.01
sI9
F1.6000000000000005
sI10
F-0.3900000000000001
sI11
F-0.78
sI12
F-0.6000000000000001
sI13
F-0.29000000000000004
sI14
F0.3999999999999999
sI15
F0.39
sI16
F-0.7599999999999999
sI17
F1.1300000000000001
sI18
F-0.7
sI19
F0.2299999999999999
sI20
F-0.43000000000000005
sI21
F-0.9500000000000001
sI22
F-0.3400000000000001
sI23
F2.000000000000001
sI24
F-0.30000000000000016
sI25
F2.7755575615628914e-17
sI26
F0.24000000000000007
sI27
F0.5100000000000001
sI28
F-0.48
sI29
F0.20000000000000004
sI30
F1.2200000000000002
sI31
F-0.9299999999999998
sI32
F-1.4600000000000004
sI33
F-1.7800000000000005
sI34
F0.14000000000000007
sI35
F-0.24999999999999997
sI36
F0.81
sI37
F0.84
sI38
F-1.1700000000000002
sI39
F-0.7500000000000001
sI40
F0.3799999999999999
sI41
F0.9
sI42
F0.21999999999999995
sI43
F0.3399999999999998
sI44
F1.0
ssg5
I0
ssI18
(dp131
g3
(dp132
I0
F-0.93
sI1
F-0.05999999999999994
sI2
F0.22000000000000006
sI3
F0.7399999999999999
sI4
F-0.69
sI5
F-1.8700000000000008
sI6
F-2.290000000000001
sI7
F0.2500000000000001
sI8
F-0.07000000000000006
sI9
F-0.04000000000000001
sI10
F-0.7900000000000001
sI11
F0.06
sI12
F-0.7600000000000001
sI13
F-1.4700000000000004
sI14
F0.5
sI15
F-0.0399999999999999
sI16
F-0.7799999999999999
sI17
F-0.24000000000000007
sI18
F-0.24000000000000007
sI19
F1.4700000000000004
sI20
F-0.20000000000000004
sI21
F0.7300000000000001
sI22
F0.33000000000000007
sI23
F1.2800000000000002
sI24
F-0.43000000000000005
sI25
F1.14
sI26
F-0.09000000000000002
sI27
F0.9899999999999999
sI28
F-0.45999999999999996
sI29
F-0.95
sI30
F0.7499999999999999
sI31
F0.12000000000000005
sI32
F-0.7199999999999999
sI33
F-0.12000000000000005
sI34
F0.6799999999999999
sI35
F0.30000000000000004
sI36
F1.6700000000000006
sI37
F-0.30000000000000004
sI38
F0.3999999999999999
sI39
F0.7600000000000001
sI40
F-0.3800000000000002
sI41
F-0.4700000000000002
sI42
F0.5599999999999999
sI43
F0.29000000000000004
sI44
F-0.44999999999999996
ssg5
I0
ssI19
(dp133
g3
(dp134
I0
F-0.26000000000000023
sI1
F-0.05999999999999989
sI2
F0.42999999999999994
sI3
F1.02
sI4
F-0.29000000000000004
sI5
F0.6
sI6
F-0.42000000000000004
sI7
F-0.0500000000000001
sI8
F-0.28
sI9
F-0.4600000000000002
sI10
F1.19
sI11
F-0.20000000000000015
sI12
F0.7
sI13
F-0.92
sI14
F-0.6699999999999999
sI15
F1.07
sI16
F-0.6300000000000001
sI17
F2.0600000000000005
sI18
F-1.3200000000000003
sI19
F-0.6400000000000001
sI20
F0.3600000000000002
sI21
F-0.51
sI22
F-0.8500000000000001
sI23
F-0.45999999999999996
sI24
F0.37
sI25
F-0.06
sI26
F0.6
sI27
F-0.049999999999999795
sI28
F-0.5200000000000001
sI29
F0.11000000000000004
sI30
F-1.1900000000000002
sI31
F-0.81
sI32
F0.92
sI33
F-0.24000000000000007
sI34
F-0.28
sI35
F0.45999999999999996
sI36
F1.8600000000000008
sI37
F-0.28
sI38
F0.8599999999999999
sI39
F0.28
sI40
F0.58
sI41
F0.17000000000000012
sI42
F0.54
sI43
F-0.12000000000000005
sI44
F0.59
ssg5
I0
ssI20
(dp135
g3
(dp136
I0
F-1.2100000000000002
sI1
F2.7755575615628914e-17
sI2
F-0.9699999999999999
sI3
F-0.21999999999999995
sI4
F-0.27000000000000013
sI5
F-1.8800000000000008
sI6
F2.250000000000001
sI7
F-0.6500000000000001
sI8
F-0.7300000000000001
sI9
F1.03
sI10
F-1.05
sI11
F-0.24999999999999997
sI12
F-0.0500000000000001
sI13
F-0.40000000000000013
sI14
F1.5700000000000005
sI15
F-0.1399999999999999
sI16
F-2.7755575615628914e-17
sI17
F0.1299999999999999
sI18
F1.6700000000000004
sI19
F0.3199999999999999
sI20
F-0.5200000000000001
sI21
F-0.20000000000000004
sI22
F0.21
sI23
F0.52
sI24
F-0.58
sI25
F-0.67
sI26
F-1.7400000000000007
sI27
F0.6700000000000002
sI28
F0.6499999999999999
sI29
F-0.8200000000000001
sI30
F-0.6799999999999999
sI31
F-2.2000000000000006
sI32
F0.7600000000000001
sI33
F-0.26
sI34
F-0.8300000000000001
sI35
F-0.56
sI36
F0.92
sI37
F-0.4600000000000002
sI38
F-1.2400000000000002
sI39
F0.8500000000000001
sI40
F0.58
sI41
F0.23000000000000007
sI42
F0.1299999999999999
sI43
F0.20000000000000004
sI44
F-0.7899999999999999
ssg5
I0
ssI21
(dp137
g3
(dp138
I0
F0.07999999999999996
sI1
F-0.47
sI2
F0.29999999999999993
sI3
F0.7
sI4
F0.71
sI5
F-0.13000000000000006
sI6
F-0.51
sI7
F1.9800000000000009
sI8
F0.5100000000000001
sI9
F0.45999999999999996
sI10
F0.52
sI11
F0.29000000000000004
sI12
F0.82
sI13
F-2.1100000000000008
sI14
F1.3800000000000003
sI15
F0.5700000000000001
sI16
F-0.06000000000000011
sI17
F0.5000000000000001
sI18
F-1.4300000000000004
sI19
F0.6699999999999999
sI20
F0.59
sI21
F0.1500000000000001
sI22
F-0.01999999999999988
sI23
F0.8599999999999999
sI24
F-1.09
sI25
F-0.1399999999999998
sI26
F0.3900000000000001
sI27
F1.1700000000000002
sI28
F-0.6200000000000001
sI29
F2.300000000000001
sI30
F-0.2500000000000001
sI31
F0.16000000000000023
sI32
F-1.06
sI33
F0.12
sI34
F-0.6799999999999999
sI35
F0.57
sI36
F0.28000000000000025
sI37
F-0.20000000000000004
sI38
F-1.0699999999999998
sI39
F-0.45000000000000007
sI40
F-0.7
sI41
F-0.21
sI42
F2.0300000000000007
sI43
F0.9600000000000001
sI44
F0.58
ssg5
I0
ssI22
(dp139
g3
(dp140
I0
F-0.04000000000000006
sI1
F-0.7
sI2
F0.010000000000000037
sI3
F0.6599999999999999
sI4
F-0.47
sI5
F-1.3500000000000003
sI6
F1.4900000000000002
sI7
F0.8999999999999999
sI8
F1.3200000000000003
sI9
F0.2600000000000001
sI10
F-0.26
sI11
F0.6200000000000001
sI12
F0.19000000000000003
sI13
F0.21
sI14
F-0.5
sI15
F-0.09000000000000002
sI16
F0.7499999999999999
sI17
F1.5400000000000005
sI18
F-0.8300000000000001
sI19
F-1.2600000000000002
sI20
F-0.6400000000000001
sI21
F-1.5100000000000005
sI22
F0.42000000000000004
sI23
F0.6300000000000001
sI24
F0.93
sI25
F0.09000000000000002
sI26
F0.45999999999999996
sI27
F-0.7900000000000001
sI28
F0.8899999999999999
sI29
F0.48
sI30
F1.2000000000000002
sI31
F-0.52
sI32
F0.16
sI33
F0.26
sI34
F1.3400000000000003
sI35
F-0.24999999999999997
sI36
F0.41000000000000003
sI37
F-0.9799999999999999
sI38
F0.9999999999999999
sI39
F-0.73
sI40
F-0.64
sI41
F-0.5400000000000001
sI42
F0.3600000000000001
sI43
F-0.20999999999999977
sI44
F0.92
ssg5
I0
ssI23
(dp141
g3
(dp142
I0
F-1.0899999999999999
sI1
F-1.4100000000000004
sI2
F-1.2400000000000002
sI3
F-0.29999999999999993
sI4
F1.08
sI5
F-8.326672684688674e-17
sI6
F2.060000000000001
sI7
F0.6500000000000001
sI8
F0.6500000000000001
sI9
F-0.13
sI10
F0.49
sI11
F0.87
sI12
F0.09000000000000014
sI13
F-0.5800000000000001
sI14
F0.7200000000000001
sI15
F0.66
sI16
F1.4900000000000002
sI17
F-0.7400000000000001
sI18
F-0.86
sI19
F-0.18000000000000002
sI20
F0.71
sI21
F1.4000000000000001
sI22
F-0.020000000000000046
sI23
F-0.009999999999999981
sI24
F0.4600000000000001
sI25
F0.41000000000000014
sI26
F0.27000000000000013
sI27
F-0.1500000000000001
sI28
F1.07
sI29
F-0.09999999999999998
sI30
F-0.49
sI31
F-0.24000000000000007
sI32
F0.21000000000000016
sI33
F-0.050000000000000044
sI34
F0.05999999999999994
sI35
F0.47
sI36
F-0.12000000000000016
sI37
F1.0599999999999998
sI38
F-0.8600000000000001
sI39
F0.6300000000000001
sI40
F-1.0899999999999999
sI41
F-0.6
sI42
F-0.7100000000000001
sI43
F0.28
sI44
F0.4999999999999999
ssg5
I0
ssI24
(dp143
g3
(dp144
I0
F1.3300000000000003
sI1
F-0.37
sI2
F-0.7499999999999999
sI3
F1.1600000000000001
sI4
F0.9800000000000001
sI5
F-0.44000000000000006
sI6
F0.6799999999999999
sI7
F0.8799999999999999
sI8
F-0.91
sI9
F-0.74
sI10
F-0.5
sI11
F-0.3600000000000001
sI12
F-0.4700000000000001
sI13
F-0.09999999999999998
sI14
F0.44999999999999996
sI15
F-0.2399999999999999
sI16
F-0.19999999999999998
sI17
F0.4600000000000001
sI18
F-0.14999999999999997
sI19
F-1.0799999999999998
sI20
F0.3600000000000001
sI21
F0.06999999999999984
sI22
F-0.30000000000000016
sI23
F0.41000000000000014
sI24
F-0.1699999999999999
sI25
F-2.530000000000001
sI26
F0.21000000000000016
sI27
F0.5600000000000002
sI28
F0.6
sI29
F1.5500000000000003
sI30
F-1.0799999999999998
sI31
F-0.44000000000000006
sI32
F0.6200000000000001
sI33
F-1.4700000000000004
sI34
F0.4
sI35
F0.5599999999999999
sI36
F0.009999999999999981
sI37
F-0.3800000000000001
sI38
F0.7000000000000001
sI39
F-0.3800000000000002
sI40
F2.400000000000001
sI41
F-1.5200000000000005
sI42
F-0.37
sI43
F-0.6499999999999999
sI44
F-0.19000000000000003
ssg5
I0
ssI25
(dp145
g3
(dp146
I0
F-0.019999999999999823
sI1
F0.8999999999999999
sI2
F-0.8700000000000001
sI3
F0.8400000000000001
sI4
F-1.3100000000000003
sI5
F0.8300000000000001
sI6
F-0.36
sI7
F-1.28
sI8
F0.33999999999999997
sI9
F-1.4000000000000004
sI10
F0.33000000000000007
sI11
F-2.610000000000001
sI12
F1.7600000000000005
sI13
F-0.24999999999999997
sI14
F-0.6100000000000001
sI15
F0.27000000000000013
sI16
F-0.9599999999999999
sI17
F0.7500000000000001
sI18
F-1.1300000000000001
sI19
F-1.2600000000000002
sI20
F1.1700000000000002
sI21
F1.3200000000000003
sI22
F0.9899999999999999
sI23
F0.04000000000000006
sI24
F0.6799999999999999
sI25
F0.44000000000000006
sI26
F-1.04
sI27
F1.5300000000000005
sI28
F1.08
sI29
F-0.53
sI30
F-0.010000000000000037
sI31
F-0.44999999999999996
sI32
F-2.080000000000001
sI33
F-0.92
sI34
F-1.9100000000000006
sI35
F-1.0
sI36
F0.04999999999999996
sI37
F0.3800000000000001
sI38
F0.5900000000000002
sI39
F1.5800000000000003
sI40
F1.1500000000000001
sI41
F-0.76
sI42
F-0.2500000000000001
sI43
F-1.9100000000000006
sI44
F0.7599999999999999
ssg5
I0
ssI26
(dp147
g3
(dp148
I0
F0.3500000000000001
sI1
F-0.04000000000000001
sI2
F0.6599999999999999
sI3
F-0.7999999999999999
sI4
F0.61
sI5
F0.04000000000000001
sI6
F-1.0999999999999999
sI7
F0.44999999999999984
sI8
F1.5500000000000005
sI9
F1.1800000000000002
sI10
F0.020000000000000157
sI11
F-1.06
sI12
F1.0899999999999999
sI13
F1.35
sI14
F-0.48
sI15
F0.7
sI16
F-0.5400000000000001
sI17
F-0.6000000000000001
sI18
F-0.6399999999999999
sI19
F0.14000000000000007
sI20
F-0.43000000000000005
sI21
F1.6300000000000006
sI22
F0.28
sI23
F0.5
sI24
F-0.8400000000000001
sI25
F1.02
sI26
F0.16000000000000011
sI27
F-1.0899999999999999
sI28
F1.04
sI29
F2.6300000000000012
sI30
F-1.7400000000000007
sI31
F1.9700000000000009
sI32
F-0.7199999999999999
sI33
F1.06
sI34
F-0.6599999999999998
sI35
F-0.45000000000000007
sI36
F0.010000000000000037
sI37
F-0.03
sI38
F-0.3999999999999999
sI39
F0.07
sI40
F0.51
sI41
F0.13
sI42
F-2.130000000000001
sI43
F0.08000000000000013
sI44
F1.4300000000000004
ssg5
I0
ssI27
(dp149
g3
(dp150
I0
F-0.7400000000000001
sI1
F-1.5300000000000005
sI2
F-0.8999999999999999
sI3
F0.7899999999999999
sI4
F-0.6199999999999999
sI5
F-0.59
sI6
F0.7800000000000001
sI7
F-2.370000000000001
sI8
F0.6100000000000001
sI9
F0.14999999999999997
sI10
F-0.44000000000000006
sI11
F-1.18
sI12
F1.3
sI13
F1.1400000000000001
sI14
F2.0000000000000004
sI15
F-1.26
sI16
F-0.11000000000000004
sI17
F1.3
sI18
F0.7499999999999999
sI19
F-0.63
sI20
F1.2200000000000002
sI21
F-0.12
sI22
F-0.4800000000000001
sI23
F0.19000000000000003
sI24
F0.7200000000000001
sI25
F0.6
sI26
F0.7599999999999999
sI27
F-1.5300000000000005
sI28
F-0.64
sI29
F-0.23000000000000018
sI30
F-0.14
sI31
F0.5199999999999999
sI32
F0.42000000000000004
sI33
F0.27
sI34
F-0.9400000000000001
sI35
F-0.3400000000000001
sI36
F0.67
sI37
F-0.9299999999999999
sI38
F-0.42000000000000004
sI39
F0.8599999999999999
sI40
F0.26
sI41
F0.18000000000000002
sI42
F-0.33999999999999997
sI43
F1.4200000000000004
sI44
F-0.19999999999999993
ssg5
I0
ssI28
(dp151
g3
(dp152
I0
F-1.4600000000000004
sI1
F-0.96
sI2
F-0.17
sI3
F1.05
sI4
F1.12
sI5
F0.31000000000000005
sI6
F-0.41000000000000003
sI7
F-0.26
sI8
F-0.92
sI9
F-0.9299999999999999
sI10
F2.340000000000001
sI11
F-0.9499999999999998
sI12
F-1.6700000000000004
sI13
F0.29000000000000004
sI14
F0.37
sI15
F-0.27000000000000013
sI16
F-1.6500000000000006
sI17
F-1.3300000000000003
sI18
F0.6700000000000002
sI19
F-1.1
sI20
F0.1299999999999999
sI21
F-0.23999999999999996
sI22
F-0.9799999999999999
sI23
F0.9899999999999999
sI24
F-0.13000000000000006
sI25
F-1.37
sI26
F1.5500000000000005
sI27
F0.7900000000000001
sI28
F0.52
sI29
F0.32000000000000006
sI30
F-0.28000000000000025
sI31
F0.64
sI32
F1.8400000000000007
sI33
F-1.6600000000000006
sI34
F-0.8200000000000001
sI35
F-0.15000000000000005
sI36
F1.9100000000000006
sI37
F-0.10000000000000014
sI38
F0.63
sI39
F-0.12999999999999995
sI40
F-1.4200000000000004
sI41
F-1.3100000000000003
sI42
F1.4000000000000004
sI43
F0.1500000000000001
sI44
F0.67
ssg5
I0
ssI29
(dp153
g3
(dp154
I0
F-0.06999999999999984
sI1
F-0.19999999999999993
sI2
F0.38
sI3
F0.3200000000000002
sI4
F1.8500000000000005
sI5
F-1.2200000000000002
sI6
F-1.6300000000000006
sI7
F1.1700000000000002
sI8
F-1.1500000000000001
sI9
F-0.6900000000000002
sI10
F-0.12
sI11
F0.32000000000000006
sI12
F0.08000000000000002
sI13
F0.8400000000000001
sI14
F0.14999999999999997
sI15
F-1.4700000000000004
sI16
F-0.7599999999999999
sI17
F0.7400000000000001
sI18
F0.42000000000000004
sI19
F0.41000000000000003
sI20
F-1.1700000000000002
sI21
F-0.7599999999999999
sI22
F-0.54
sI23
F-0.61
sI24
F-0.24000000000000007
sI25
F0.28000000000000014
sI26
F-0.39
sI27
F0.56
sI28
F-1.2400000000000002
sI29
F0.64
sI30
F-0.38
sI31
F-1.0799999999999998
sI32
F0.18000000000000002
sI33
F-1.1400000000000001
sI34
F-0.23000000000000007
sI35
F-0.7200000000000001
sI36
F0.7899999999999999
sI37
F0.69
sI38
F-0.6699999999999999
sI39
F-0.5599999999999999
sI40
F1.3000000000000003
sI41
F0.23999999999999996
sI42
F0.3200000000000002
sI43
F-0.91
sI44
F-1.8600000000000005
ssg5
I0
ssI30
(dp155
g3
(dp156
I0
F-1.6100000000000005
sI1
F-2.020000000000001
sI2
F0.19000000000000003
sI3
F-0.40000000000000013
sI4
F-1.06
sI5
F1.2500000000000002
sI6
F0.72
sI7
F0.56
sI8
F-1.0799999999999998
sI9
F-0.030000000000000054
sI10
F1.6700000000000006
sI11
F-0.6699999999999999
sI12
F0.6499999999999999
sI13
F-0.59
sI14
F1.5500000000000005
sI15
F-0.5
sI16
F-0.2500000000000001
sI17
F0.37
sI18
F-0.2399999999999998
sI19
F0.36
sI20
F0.06000000000000011
sI21
F-0.13
sI22
F0.49
sI23
F-0.9500000000000001
sI24
F0.020000000000000046
sI25
F0.51
sI26
F-0.84
sI27
F-0.21
sI28
F0.7399999999999999
sI29
F0.9
sI30
F0.6
sI31
F0.7699999999999999
sI32
F1.6300000000000006
sI33
F1.1700000000000002
sI34
F-0.5800000000000002
sI35
F0.41000000000000014
sI36
F-0.6000000000000001
sI37
F-0.8999999999999999
sI38
F-0.22999999999999995
sI39
F-1.8900000000000006
sI40
F1.1
sI41
F-1.2200000000000002
sI42
F-1.9000000000000008
sI43
F-0.34
sI44
F0.53
ssg5
I0
ssI31
(dp157
g3
(dp158
I0
F1.6000000000000003
sI1
F-0.06999999999999995
sI2
F-1.6800000000000006
sI3
F-0.16999999999999996
sI4
F-0.42000000000000004
sI5
F1.3400000000000003
sI6
F-0.8999999999999999
sI7
F1.9500000000000006
sI8
F-1.6200000000000003
sI9
F-0.07000000000000012
sI10
F0.9500000000000001
sI11
F0.7799999999999999
sI12
F0.10000000000000014
sI13
F-0.7899999999999999
sI14
F-0.14999999999999997
sI15
F2.270000000000001
sI16
F-0.91
sI17
F1.3200000000000003
sI18
F0.6499999999999999
sI19
F1.02
sI20
F1.3400000000000003
sI21
F-0.07
sI22
F-1.2600000000000002
sI23
F-1.1300000000000001
sI24
F-0.3400000000000001
sI25
F-0.6599999999999999
sI26
F-0.14999999999999997
sI27
F-0.020000000000000046
sI28
F-0.1399999999999998
sI29
F0.26000000000000023
sI30
F0.27
sI31
F0.32000000000000006
sI32
F0.25999999999999995
sI33
F-0.23999999999999996
sI34
F1.06
sI35
F0.8499999999999999
sI36
F0.5600000000000002
sI37
F-1.7500000000000007
sI38
F-0.61
sI39
F-1.07
sI40
F-1.2300000000000002
sI41
F0.04999999999999996
sI42
F-0.91
sI43
F-1.3200000000000003
sI44
F-1.27
ssg5
I0
ssI32
(dp159
g3
(dp160
I0
F1.3500000000000003
sI1
F-0.55
sI2
F0.6
sI3
F0.45000000000000007
sI4
F-0.22000000000000017
sI5
F1.1700000000000002
sI6
F0.48
sI7
F0.04000000000000006
sI8
F-0.38
sI9
F-1.27
sI10
F-0.22000000000000006
sI11
F0.3500000000000001
sI12
F0.5
sI13
F-1.8100000000000007
sI14
F0.43000000000000016
sI15
F0.8900000000000001
sI16
F0.43000000000000005
sI17
F0.8400000000000001
sI18
F0.06000000000000022
sI19
F-0.28
sI20
F0.26
sI21
F-1.5300000000000005
sI22
F0.6300000000000001
sI23
F0.10999999999999999
sI24
F0.7100000000000001
sI25
F0.26
sI26
F1.1700000000000002
sI27
F-0.22000000000000006
sI28
F0.1499999999999999
sI29
F0.20999999999999977
sI30
F-0.11000000000000004
sI31
F-0.6400000000000001
sI32
F0.48
sI33
F0.2500000000000001
sI34
F-0.3300000000000002
sI35
F0.75
sI36
F-0.09000000000000002
sI37
F-0.26999999999999996
sI38
F0.53
sI39
F1.2600000000000002
sI40
F0.33000000000000007
sI41
F1.04
sI42
F-1.3900000000000003
sI43
F-1.1800000000000002
sI44
F-0.6
ssg5
I0
ssI33
(dp161
g3
(dp162
I0
F0.54
sI1
F-1.5200000000000005
sI2
F-0.86
sI3
F0.37
sI4
F-1.02
sI5
F0.5199999999999998
sI6
F0.3500000000000001
sI7
F0.08000000000000007
sI8
F-0.04000000000000001
sI9
F1.07
sI10
F-0.9999999999999999
sI11
F-0.7699999999999999
sI12
F-0.58
sI13
F0.4
sI14
F-0.33
sI15
F-0.14000000000000007
sI16
F-0.08000000000000013
sI17
F0.7
sI18
F-1.2600000000000002
sI19
F0.7899999999999999
sI20
F-0.31000000000000005
sI21
F0.7900000000000001
sI22
F0.16000000000000011
sI23
F0.03999999999999995
sI24
F-0.7599999999999999
sI25
F-0.9600000000000001
sI26
F-0.44000000000000006
sI27
F0.06
sI28
F1.3700000000000003
sI29
F-1.6700000000000006
sI30
F0.4
sI31
F-1.1400000000000001
sI32
F0.31
sI33
F-1.19
sI34
F-1.7600000000000007
sI35
F-0.36
sI36
F-0.5700000000000002
sI37
F1.2100000000000002
sI38
F0.3400000000000001
sI39
F0.5400000000000001
sI40
F-1.0699999999999998
sI41
F0.1499999999999999
sI42
F1.1400000000000001
sI43
F0.9700000000000001
sI44
F-1.4800000000000002
ssg5
I0
ssI34
(dp163
g3
(dp164
I0
F0.07999999999999996
sI1
F1.2100000000000002
sI2
F-0.050000000000000044
sI3
F0.7200000000000001
sI4
F-0.6599999999999999
sI5
F-0.62
sI6
F1.4000000000000001
sI7
F-0.24999999999999997
sI8
F0.64
sI9
F0.39
sI10
F-1.3700000000000003
sI11
F0.81
sI12
F-0.45999999999999996
sI13
F-0.84
sI14
F0.47
sI15
F-0.91
sI16
F-0.8
sI17
F0.4800000000000002
sI18
F-1.2300000000000002
sI19
F-1.5600000000000005
sI20
F0.3999999999999999
sI21
F-1.3200000000000003
sI22
F-0.30000000000000004
sI23
F0.65
sI24
F0.6300000000000001
sI25
F0.28000000000000014
sI26
F-0.45000000000000007
sI27
F0.31000000000000005
sI28
F-1.9700000000000006
sI29
F-0.9
sI30
F0.41000000000000014
sI31
F-0.20000000000000015
sI32
F1.5400000000000005
sI33
F0.5700000000000002
sI34
F1.4300000000000004
sI35
F-0.30000000000000004
sI36
F1.02
sI37
F0.06000000000000022
sI38
F0.8500000000000001
sI39
F-2.0900000000000007
sI40
F-0.61
sI41
F0.8400000000000001
sI42
F0.5100000000000001
sI43
F1.1800000000000002
sI44
F0.4
ssg5
I0
ssI35
(dp165
g3
(dp166
I0
F-2.9600000000000017
sI1
F0.3800000000000002
sI2
F1.3800000000000001
sI3
F0.33000000000000007
sI4
F-0.53
sI5
F0.06999999999999995
sI6
F-0.06999999999999995
sI7
F-0.7999999999999999
sI8
F-0.3600000000000001
sI9
F-1.0999999999999999
sI10
F1.2200000000000002
sI11
F-0.9
sI12
F-0.17000000000000007
sI13
F1.1400000000000001
sI14
F0.29000000000000015
sI15
F1.2100000000000002
sI16
F-0.5700000000000001
sI17
F-1.3300000000000003
sI18
F-0.4999999999999999
sI19
F0.12
sI20
F-0.8699999999999999
sI21
F-0.43999999999999995
sI22
F1.6600000000000006
sI23
F-0.23000000000000007
sI24
F-0.9099999999999999
sI25
F-0.97
sI26
F0.72
sI27
F-0.7
sI28
F-0.17
sI29
F-0.9799999999999999
sI30
F1.01
sI31
F1.1400000000000001
sI32
F1.2900000000000003
sI33
F-0.23000000000000007
sI34
F-0.32000000000000006
sI35
F-0.19999999999999998
sI36
F0.9999999999999999
sI37
F-1.3700000000000003
sI38
F0.6499999999999999
sI39
F-0.30000000000000004
sI40
F-0.57
sI41
F0.32999999999999996
sI42
F-0.28999999999999987
sI43
F-0.6599999999999999
sI44
F0.06999999999999995
ssg5
I0
ssI36
(dp167
g3
(dp168
I0
F-0.5100000000000001
sI1
F0.4
sI2
F-0.11000000000000004
sI3
F0.6000000000000001
sI4
F1.08
sI5
F1.7500000000000007
sI6
F-1.2500000000000002
sI7
F-0.4800000000000001
sI8
F0.14999999999999997
sI9
F0.56
sI10
F-0.07
sI11
F0.61
sI12
F-1.6800000000000004
sI13
F0.30000000000000016
sI14
F-0.07
sI15
F0.92
sI16
F0.13000000000000006
sI17
F-1.1300000000000001
sI18
F0.07000000000000006
sI19
F-1.2
sI20
F1.02
sI21
F0.7699999999999999
sI22
F1.06
sI23
F1.5200000000000005
sI24
F-0.41000000000000003
sI25
F0.24999999999999997
sI26
F-1.1900000000000002
sI27
F0.07
sI28
F0.27
sI29
F-0.8300000000000001
sI30
F0.42000000000000015
sI31
F-0.43000000000000005
sI32
F0.7799999999999999
sI33
F1.8800000000000008
sI34
F-1.1700000000000002
sI35
F0.16
sI36
F0.13
sI37
F0.3200000000000002
sI38
F1.7700000000000007
sI39
F-1.1800000000000002
sI40
F-1.36
sI41
F-0.82
sI42
F-0.09999999999999998
sI43
F-1.2300000000000002
sI44
F1.2200000000000002
ssg5
I0
ssI37
(dp169
g3
(dp170
I0
F1.3900000000000001
sI1
F1.4600000000000004
sI2
F-0.06000000000000005
sI3
F-0.4
sI4
F-0.5000000000000001
sI5
F0.8400000000000001
sI6
F-1.5800000000000003
sI7
F-0.5599999999999999
sI8
F-0.8699999999999999
sI9
F-0.29000000000000004
sI10
F0.29000000000000015
sI11
F0.3600000000000001
sI12
F0.23000000000000007
sI13
F0.7699999999999999
sI14
F-1.09
sI15
F-1.2
sI16
F-0.06
sI17
F-0.8400000000000001
sI18
F0.37
sI19
F-0.58
sI20
F-8.326672684688674e-17
sI21
F-0.2600000000000001
sI22
F-0.8999999999999999
sI23
F0.0399999999999999
sI24
F0.5300000000000001
sI25
F-1.8300000000000007
sI26
F-0.47
sI27
F-0.45000000000000007
sI28
F2.0100000000000007
sI29
F1.3700000000000003
sI30
F-0.03000000000000011
sI31
F0.23000000000000007
sI32
F0.84
sI33
F-1.1600000000000001
sI34
F-0.91
sI35
F-0.38
sI36
F-1.03
sI37
F0.51
sI38
F-0.24000000000000002
sI39
F-0.7800000000000001
sI40
F-0.3600000000000001
sI41
F-0.9
sI42
F-0.5599999999999999
sI43
F1.7600000000000005
sI44
F-0.8400000000000001
ssg5
I0
ssI38
(dp171
g3
(dp172
I0
F-0.30000000000000004
sI1
F0.23000000000000007
sI2
F-0.6
sI3
F0.33999999999999997
sI4
F0.28
sI5
F-0.21000000000000005
sI6
F-0.69
sI7
F-0.59
sI8
F-0.7100000000000001
sI9
F-0.8400000000000001
sI10
F0.72
sI11
F0.44000000000000006
sI12
F-0.8099999999999999
sI13
F0.18000000000000013
sI14
F-0.22000000000000006
sI15
F-0.07
sI16
F-0.020000000000000046
sI17
F2.0300000000000007
sI18
F-0.01999999999999999
sI19
F0.32000000000000006
sI20
F-1.8900000000000008
sI21
F-1.6800000000000004
sI22
F1.0
sI23
F0.24000000000000007
sI24
F0.8300000000000001
sI25
F-0.5400000000000001
sI26
F-0.7100000000000001
sI27
F0.51
sI28
F-0.1500000000000001
sI29
F0.7
sI30
F0.64
sI31
F0.07
sI32
F0.9400000000000001
sI33
F1.9000000000000008
sI34
F-0.5399999999999999
sI35
F-0.18000000000000002
sI36
F1.6200000000000006
sI37
F0.29000000000000004
sI38
F0.5400000000000001
sI39
F-0.9999999999999999
sI40
F-0.9799999999999999
sI41
F0.40000000000000013
sI42
F0.6800000000000002
sI43
F0.24999999999999997
sI44
F0.3800000000000002
ssg5
I0
ssI39
(dp173
g3
(dp174
I0
F0.7700000000000001
sI1
F-0.8099999999999999
sI2
F0.41000000000000003
sI3
F0.6500000000000001
sI4
F1.4800000000000002
sI5
F1.01
sI6
F0.64
sI7
F-0.18000000000000002
sI8
F0.03
sI9
F-1.4000000000000001
sI10
F-0.31000000000000005
sI11
F-0.32000000000000006
sI12
F1.1600000000000001
sI13
F-0.71
sI14
F-0.14
sI15
F-0.6900000000000002
sI16
F0.36
sI17
F-1.4400000000000004
sI18
F-1.2200000000000002
sI19
F-0.13000000000000006
sI20
F1.5700000000000005
sI21
F1.6400000000000006
sI22
F-1.9900000000000007
sI23
F0.27
sI24
F-1.3100000000000003
sI25
F1.2300000000000002
sI26
F-0.30000000000000004
sI27
F0.4
sI28
F0.05999999999999994
sI29
F0.9799999999999999
sI30
F0.35
sI31
F-0.10999999999999999
sI32
F-0.34
sI33
F0.06000000000000022
sI34
F-0.18000000000000024
sI35
F-0.8499999999999999
sI36
F0.7000000000000001
sI37
F1.7500000000000007
sI38
F1.29
sI39
F0.10000000000000014
sI40
F-0.52
sI41
F2.0800000000000005
sI42
F-0.7800000000000001
sI43
F0.22000000000000006
sI44
F-0.8699999999999999
ssg5
I0
ssI40
(dp175
g3
(dp176
I0
F0.7799999999999999
sI1
F1.7600000000000007
sI2
F-2.0700000000000007
sI3
F0.92
sI4
F-1.4000000000000001
sI5
F1.5000000000000002
sI6
F0.58
sI7
F0.8300000000000001
sI8
F0.7999999999999999
sI9
F0.4700000000000001
sI10
F0.51
sI11
F1.8100000000000007
sI12
F-1.5300000000000005
sI13
F0.9799999999999999
sI14
F0.6599999999999999
sI15
F-1.4500000000000004
sI16
F0.6099999999999999
sI17
F-0.9799999999999999
sI18
F-1.6100000000000005
sI19
F0.93
sI20
F-1.12
sI21
F-0.42000000000000004
sI22
F2.420000000000001
sI23
F0.23000000000000007
sI24
F-0.6699999999999999
sI25
F0.43999999999999995
sI26
F-0.4
sI27
F-0.32000000000000006
sI28
F-0.7100000000000001
sI29
F-0.07000000000000012
sI30
F1.12
sI31
F-0.7100000000000001
sI32
F-1.0899999999999999
sI33
F0.18000000000000002
sI34
F-2.7755575615628914e-17
sI35
F0.5299999999999999
sI36
F-0.7700000000000001
sI37
F-0.81
sI38
F1.5600000000000005
sI39
F1.06
sI40
F-0.6100000000000001
sI41
F2.160000000000001
sI42
F0.8899999999999999
sI43
F-0.1399999999999999
sI44
F-1.3400000000000003
ssg5
I0
ssI41
(dp177
g3
(dp178
I0
F-0.3500000000000001
sI1
F-0.2600000000000001
sI2
F0.28
sI3
F-1.5500000000000005
sI4
F-1.19
sI5
F0.45999999999999996
sI6
F0.8099999999999999
sI7
F0.7800000000000001
sI8
F0.6799999999999999
sI9
F0.3999999999999999
sI10
F0.04000000000000001
sI11
F-1.5300000000000005
sI12
F0.6500000000000001
sI13
F-0.27
sI14
F-0.2600000000000001
sI15
F0.10000000000000014
sI16
F-0.7000000000000001
sI17
F0.23000000000000018
sI18
F-1.7200000000000006
sI19
F1.2600000000000002
sI20
F0.71
sI21
F0.62
sI22
F-0.20000000000000004
sI23
F0.7
sI24
F0.95
sI25
F0.8699999999999999
sI26
F-1.2900000000000003
sI27
F-0.05000000000000021
sI28
F-0.5499999999999999
sI29
F-0.09000000000000002
sI30
F-1.12
sI31
F0.7100000000000001
sI32
F0.13
sI33
F0.53
sI34
F-0.59
sI35
F1.4800000000000004
sI36
F-2.5200000000000014
sI37
F0.5600000000000002
sI38
F0.8599999999999999
sI39
F0.8900000000000001
sI40
F0.8800000000000001
sI41
F-0.38
sI42
F1.7800000000000005
sI43
F0.3400000000000001
sI44
F0.41000000000000003
ssg5
I0
ssI42
(dp179
g3
(dp180
I0
F-0.25999999999999995
sI1
F-0.7
sI2
F-0.01999999999999999
sI3
F-0.07999999999999996
sI4
F-1.2300000000000002
sI5
F-0.77
sI6
F-0.9700000000000001
sI7
F-0.6
sI8
F-0.7200000000000001
sI9
F-0.31
sI10
F1.6400000000000006
sI11
F0.21000000000000005
sI12
F0.030000000000000165
sI13
F0.4
sI14
F0.6599999999999999
sI15
F-0.6500000000000001
sI16
F-1.07
sI17
F-0.11000000000000004
sI18
F-0.69
sI19
F0.11000000000000004
sI20
F-0.5100000000000001
sI21
F-1.5800000000000003
sI22
F0.9699999999999999
sI23
F-0.5
sI24
F0.9699999999999999
sI25
F0.09000000000000002
sI26
F-0.81
sI27
F0.9699999999999999
sI28
F0.68
sI29
F-0.7400000000000001
sI30
F0.9500000000000001
sI31
F0.9800000000000001
sI32
F-0.44999999999999996
sI33
F-0.26
sI34
F0.32000000000000006
sI35
F-0.26
sI36
F-0.9
sI37
F1.0999999999999999
sI38
F-1.5000000000000004
sI39
F-2.3800000000000012
sI40
F1.3800000000000003
sI41
F-0.06000000000000011
sI42
F-0.36
sI43
F-0.57
sI44
F-1.4000000000000001
ssg5
I0
ssI43
(dp181
g3
(dp182
I0
F1.2000000000000002
sI1
F0.11000000000000004
sI2
F0.8
sI3
F-0.42000000000000015
sI4
F0.45000000000000007
sI5
F0.6799999999999999
sI6
F0.18000000000000013
sI7
F0.04000000000000006
sI8
F-0.07
sI9
F-0.010000000000000037
sI10
F-1.2600000000000002
sI11
F-0.10999999999999999
sI12
F-1.04
sI13
F1.4300000000000004
sI14
F1.1500000000000001
sI15
F-1.3300000000000003
sI16
F0.22000000000000006
sI17
F0.8799999999999999
sI18
F-1.06
sI19
F-0.4800000000000002
sI20
F-0.3700000000000002
sI21
F0.12999999999999995
sI22
F0.7700000000000001
sI23
F1.3400000000000003
sI24
F1.4200000000000004
sI25
F0.10000000000000003
sI26
F1.06
sI27
F1.16
sI28
F0.64
sI29
F-0.00999999999999987
sI30
F0.8500000000000001
sI31
F-0.27000000000000013
sI32
F-1.9100000000000008
sI33
F-1.6800000000000004
sI34
F-1.4700000000000004
sI35
F-0.5200000000000001
sI36
F0.6000000000000001
sI37
F0.91
sI38
F-0.44000000000000006
sI39
F-0.3400000000000001
sI40
F1.21
sI41
F-1.6100000000000005
sI42
F-1.19
sI43
F-0.37
sI44
F-0.91
ssg5
I0
ssI44
(dp183
g3
(dp184
I0
F0.5099999999999999
sI1
F0.1500000000000001
sI2
F0.9500000000000001
sI3
F-0.36
sI4
F0.22
sI5
F-0.15000000000000005
sI6
F-1.02
sI7
F-0.69
sI8
F-0.2500000000000001
sI9
F0.3500000000000001
sI10
F-0.8500000000000001
sI11
F0.9700000000000001
sI12
F-0.14
sI13
F1.7500000000000007
sI14
F-0.18000000000000013
sI15
F-0.8500000000000001
sI16
F-0.2500000000000001
sI17
F-0.92
sI18
F-0.009999999999999981
sI19
F0.39
sI20
F0.5800000000000001
sI21
F0.30000000000000004
sI22
F1.12
sI23
F0.76
sI24
F0.21000000000000005
sI25
F-0.47
sI26
F0.2500000000000002
sI27
F-0.44000000000000017
sI28
F-0.4600000000000001
sI29
F1.3700000000000003
sI30
F-1.14
sI31
F1.5700000000000003
sI32
F-0.69
sI33
F0.8699999999999999
sI34
F-0.0399999999999999
sI35
F1.6200000000000006
sI36
F0.26
sI37
F0.030000000000000054
sI38
F0.18000000000000002
sI39
F0.10999999999999988
sI40
F-0.3
sI41
F1.4300000000000004
sI42
F-1.5900000000000005
sI43
F-0.3999999999999999
sI44
F1.4700000000000004
ssg5
I0
ssI45
(dp185
g3
(dp186
I0
F1.05
sI1
F0.22
sI2
F-2.310000000000001
sI3
F-0.5000000000000001
sI4
F0.07
sI5
F0.9
sI6
F0.6700000000000002
sI7
F-0.5800000000000001
sI8
F0.8799999999999999
sI9
F0.5
sI10
F0.6
sI11
F0.13000000000000017
sI12
F1.4000000000000001
sI13
F0.73
sI14
F0.43000000000000005
sI15
F-0.4600000000000001
sI16
F1.0899999999999999
sI17
F-0.3800000000000002
sI18
F0.58
sI19
F1.2700000000000002
sI20
F0.6999999999999998
sI21
F-0.41000000000000003
sI22
F0.19999999999999998
sI23
F-0.2500000000000001
sI24
F-0.5599999999999999
sI25
F-0.019999999999999934
sI26
F-0.66
sI27
F-1.3600000000000003
sI28
F-1.2100000000000002
sI29
F-0.6000000000000001
sI30
F-0.53
sI31
F-1.26
sI32
F0.7500000000000001
sI33
F0.40000000000000013
sI34
F0.37
sI35
F-1.6200000000000006
sI36
F1.9800000000000009
sI37
F0.29000000000000004
sI38
F-0.8699999999999999
sI39
F0.39
sI40
F-0.14
sI41
F0.12
sI42
F1.37
sI43
F-0.8
sI44
F0.8300000000000001
ssg5
I0
ssI46
(dp187
g3
(dp188
I0
F-0.8200000000000001
sI1
F1.1400000000000001
sI2
F1.7700000000000007
sI3
F-0.6300000000000001
sI4
F0.14000000000000007
sI5
F-1.12
sI6
F0.7699999999999999
sI7
F-0.17
sI8
F2.4400000000000013
sI9
F0.61
sI10
F0.3500000000000001
sI11
F-1.8800000000000008
sI12
F2.1000000000000005
sI13
F0.31000000000000005
sI14
F0.39
sI15
F0.33000000000000007
sI16
F-0.52
sI17
F-1.2500000000000002
sI18
F-0.8299999999999998
sI19
F-1.4100000000000004
sI20
F-0.08000000000000002
sI21
F-0.13
sI22
F0.13000000000000006
sI23
F-0.10000000000000003
sI24
F-0.5900000000000001
sI25
F0.10999999999999999
sI26
F-1.4000000000000004
sI27
F0.44000000000000006
sI28
F0.54
sI29
F1.6600000000000006
sI30
F-0.9900000000000001
sI31
F-1.4400000000000004
sI32
F-0.6400000000000001
sI33
F-0.5600000000000002
sI34
F0.53
sI35
F-0.48
sI36
F0.7999999999999999
sI37
F0.6000000000000001
sI38
F-1.02
sI39
F0.30000000000000004
sI40
F0.31000000000000005
sI41
F-0.1299999999999999
sI42
F1.16
sI43
F1.9700000000000006
sI44
F0.95
ssg5
I0
ssI47
(dp189
g3
(dp190
I0
F1.3400000000000003
sI1
F0.31000000000000005
sI2
F0.82
sI3
F1.5600000000000003
sI4
F-0.7700000000000001
sI5
F0.3200000000000002
sI6
F0.9400000000000001
sI7
F-0.30000000000000016
sI8
F0.14
sI9
F-0.51
sI10
F-1.4600000000000002
sI11
F1.3600000000000003
sI12
F0.26
sI13
F1.7600000000000007
sI14
F-1.3800000000000003
sI15
F1.8400000000000007
sI16
F0.9599999999999999
sI17
F0.8799999999999999
sI18
F-0.7899999999999999
sI19
F-0.05000000000000021
sI20
F-0.24000000000000002
sI21
F-0.31000000000000005
sI22
F-0.10999999999999999
sI23
F-2.3800000000000012
sI24
F-2.040000000000001
sI25
F-1.03
sI26
F-1.8200000000000007
sI27
F0.30000000000000004
sI28
F-0.15999999999999984
sI29
F1.0799999999999998
sI30
F-0.43000000000000005
sI31
F-1.2100000000000002
sI32
F1.4400000000000004
sI33
F0.19000000000000003
sI34
F-1.16
sI35
F-0.39
sI36
F0.7200000000000001
sI37
F-0.23
sI38
F1.28
sI39
F-0.7599999999999999
sI40
F0.17999999999999997
sI41
F0.9700000000000001
sI42
F-1.3300000000000003
sI43
F0.9600000000000001
sI44
F-0.01999999999999999
ssg5
I0
ssI48
(dp191
g3
(dp192
I0
F0.62
sI1
F-0.4
sI2
F1.7500000000000004
sI3
F1.17
sI4
F-0.6300000000000001
sI5
F-0.8899999999999999
sI6
F-0.8599999999999999
sI7
F-0.51
sI8
F-1.7500000000000007
sI9
F0.9500000000000001
sI10
F1.1400000000000001
sI11
F-0.8399999999999999
sI12
F0.07
sI13
F-1.8600000000000008
sI14
F-0.0500000000000001
sI15
F-1.6900000000000006
sI16
F1.02
sI17
F-0.020000000000000046
sI18
F0.8500000000000001
sI19
F1.3600000000000003
sI20
F0.7600000000000001
sI21
F-0.10000000000000003
sI22
F-1.1400000000000001
sI23
F-0.9500000000000001
sI24
F-0.85
sI25
F0.24999999999999997
sI26
F0.28
sI27
F0.11000000000000004
sI28
F-0.24999999999999997
sI29
F-1.0599999999999998
sI30
F0.6000000000000001
sI31
F1.2300000000000002
sI32
F0.3700000000000001
sI33
F-0.04000000000000006
sI34
F-1.4700000000000004
sI35
F-1.1400000000000001
sI36
F-0.45999999999999996
sI37
F-0.009999999999999981
sI38
F1.3400000000000003
sI39
F0.19999999999999998
sI40
F2.7755575615628914e-17
sI41
F-0.24999999999999997
sI42
F-1.2200000000000002
sI43
F-0.0500000000000001
sI44
F-0.94
ssg5
I0
ssI49
(dp193
g3
(dp194
I0
F-0.14999999999999997
sI1
F-0.39
sI2
F1.2200000000000002
sI3
F-0.22999999999999995
sI4
F-0.39
sI5
F-1.3800000000000003
sI6
F0.92
sI7
F1.8300000000000007
sI8
F0.3400000000000001
sI9
F1.1400000000000001
sI10
F1.02
sI11
F0.16
sI12
F-0.92
sI13
F0.73
sI14
F-0.39
sI15
F0.5700000000000001
sI16
F0.04000000000000001
sI17
F-0.44999999999999996
sI18
F0.6000000000000001
sI19
F1.1400000000000001
sI20
F-0.49
sI21
F0.91
sI22
F-0.39
sI23
F0.9599999999999999
sI24
F0.65
sI25
F-0.38
sI26
F-1.5600000000000005
sI27
F-0.88
sI28
F0.14999999999999997
sI29
F0.12000000000000005
sI30
F-0.2500000000000002
sI31
F-1.2000000000000002
sI32
F-0.14999999999999997
sI33
F-1.8900000000000008
sI34
F0.68
sI35
F0.75
sI36
F1.02
sI37
F0.43000000000000005
sI38
F0.2700000000000001
sI39
F1.34
sI40
F-0.64
sI41
F1.16
sI42
F0.45000000000000007
sI43
F1.2300000000000002
sI44
F0.8200000000000001
ssg5
I0
ssI50
(dp195
g3
(dp196
I0
F-0.6299999999999999
sI1
F-0.9800000000000001
sI2
F-0.8999999999999999
sI3
F0.31000000000000005
sI4
F0.16000000000000011
sI5
F-1.2900000000000003
sI6
F0.6399999999999999
sI7
F1.28
sI8
F0.0399999999999999
sI9
F0.85
sI10
F-0.35
sI11
F1.6800000000000006
sI12
F0.6799999999999999
sI13
F-1.9700000000000006
sI14
F0.22999999999999995
sI15
F0.31000000000000005
sI16
F0.7100000000000001
sI17
F-0.6100000000000001
sI18
F0.3500000000000001
sI19
F0.5
sI20
F-0.54
sI21
F-0.41999999999999993
sI22
F-0.32000000000000006
sI23
F-1.8900000000000006
sI24
F-0.8799999999999999
sI25
F0.72
sI26
F0.5600000000000002
sI27
F-0.44000000000000006
sI28
F-1.4300000000000004
sI29
F-0.20000000000000004
sI30
F1.24
sI31
F-1.5600000000000005
sI32
F-1.2400000000000002
sI33
F0.2500000000000001
sI34
F0.51
sI35
F0.7800000000000001
sI36
F-0.12
sI37
F0.7
sI38
F-1.4400000000000004
sI39
F-1.37
sI40
F-0.5400000000000001
sI41
F-1.06
sI42
F0.6599999999999999
sI43
F0.6200000000000001
sI44
F1.1199999999999999
ssg5
I0
ssI51
(dp197
g3
(dp198
I0
F0.26
sI1
F0.73
sI2
F0.23
sI3
F-0.26
sI4
F-0.61
sI5
F1.4000000000000001
sI6
F-0.9899999999999999
sI7
F0.16000000000000011
sI8
F-0.65
sI9
F0.06
sI10
F-1.19
sI11
F1.2100000000000002
sI12
F-2.170000000000001
sI13
F-1.3100000000000003
sI14
F1.7900000000000007
sI15
F-0.4600000000000001
sI16
F0.35
sI17
F-0.05999999999999994
sI18
F1.4800000000000004
sI19
F-1.0
sI20
F-0.7899999999999999
sI21
F-0.7100000000000001
sI22
F1.4200000000000004
sI23
F0.14000000000000007
sI24
F-0.8400000000000001
sI25
F1.7300000000000006
sI26
F0.3399999999999998
sI27
F-0.8299999999999998
sI28
F0.29000000000000004
sI29
F1.3800000000000001
sI30
F0.36
sI31
F-1.0799999999999998
sI32
F1.2900000000000003
sI33
F-0.7899999999999999
sI34
F-0.7900000000000001
sI35
F0.09999999999999987
sI36
F-0.13000000000000006
sI37
F0.9899999999999999
sI38
F0.47
sI39
F-0.81
sI40
F0.47
sI41
F1.4500000000000002
sI42
F-0.6
sI43
F0.4700000000000002
sI44
F1.3800000000000003
ssg5
I0
ssI52
(dp199
g3
(dp200
I0
F1.0699999999999998
sI1
F-0.6699999999999999
sI2
F-2.260000000000001
sI3
F0.06000000000000011
sI4
F0.84
sI5
F-0.91
sI6
F-0.5399999999999999
sI7
F-0.3399999999999999
sI8
F1.3700000000000003
sI9
F-0.21999999999999983
sI10
F-0.81
sI11
F1.18
sI12
F0.63
sI13
F-0.28
sI14
F-0.33999999999999997
sI15
F-0.43000000000000005
sI16
F-0.44999999999999996
sI17
F-0.8099999999999998
sI18
F-1.01
sI19
F-1.5400000000000005
sI20
F-0.6299999999999999
sI21
F1.2
sI22
F1.3700000000000003
sI23
F-0.7999999999999999
sI24
F0.33
sI25
F-0.08999999999999986
sI26
F-0.58
sI27
F-0.15999999999999995
sI28
F-1.04
sI29
F0.7200000000000001
sI30
F-0.7
sI31
F1.12
sI32
F1.2000000000000002
sI33
F0.8
sI34
F-1.4800000000000004
sI35
F-0.08999999999999997
sI36
F0.08999999999999997
sI37
F-1.5200000000000005
sI38
F0.19000000000000003
sI39
F0.39
sI40
F0.7900000000000001
sI41
F-1.6700000000000004
sI42
F0.6599999999999999
sI43
F-0.59
sI44
F0.38
ssg5
I0
ssI53
(dp201
g3
(dp202
I0
F0.020000000000000046
sI1
F1.12
sI2
F-2.0100000000000007
sI3
F1.16
sI4
F-0.94
sI5
F-1.6500000000000004
sI6
F0.16
sI7
F-0.7900000000000001
sI8
F0.7499999999999999
sI9
F-0.8500000000000001
sI10
F-0.10000000000000003
sI11
F0.7199999999999999
sI12
F0.81
sI13
F-0.21000000000000005
sI14
F2.4600000000000013
sI15
F-1.4000000000000001
sI16
F0.16999999999999996
sI17
F0.3200000000000002
sI18
F-0.28
sI19
F-1.12
sI20
F-0.32000000000000006
sI21
F-1.3600000000000003
sI22
F0.5299999999999999
sI23
F0.55
sI24
F-1.07
sI25
F0.62
sI26
F-0.9999999999999999
sI27
F1.4900000000000004
sI28
F1.5300000000000002
sI29
F1.27
sI30
F-0.6599999999999998
sI31
F-0.9600000000000001
sI32
F0.9400000000000001
sI33
F-1.2
sI34
F-1.5300000000000002
sI35
F1.6800000000000006
sI36
F0.88
sI37
F1.5100000000000005
sI38
F-1.12
sI39
F-0.22000000000000006
sI40
F-0.45999999999999996
sI41
F0.6699999999999999
sI42
F-0.8699999999999999
sI43
F0.7500000000000001
sI44
F-0.17000000000000023
ssg5
I0
ssI54
(dp203
g3
(dp204
I0
F0.44000000000000006
sI1
F-0.13000000000000006
sI2
F1.1900000000000002
sI3
F-1.7000000000000006
sI4
F-0.64
sI5
F-0.59
sI6
F0.18000000000000002
sI7
F0.6
sI8
F0.53
sI9
F-0.3400000000000001
sI10
F-1.3400000000000003
sI11
F1.5
sI12
F-0.7
sI13
F-1.8200000000000007
sI14
F-0.09999999999999987
sI15
F-0.72
sI16
F1.05
sI17
F-0.5399999999999999
sI18
F-0.6400000000000001
sI19
F-1.4900000000000002
sI20
F-0.27000000000000024
sI21
F0.8699999999999999
sI22
F0.5300000000000001
sI23
F-0.9299999999999998
sI24
F-1.3200000000000003
sI25
F-1.6000000000000003
sI26
F-0.23
sI27
F1.4900000000000002
sI28
F1.4600000000000004
sI29
F-0.6799999999999999
sI30
F-0.42000000000000004
sI31
F-1.1
sI32
F1.0499999999999998
sI33
F0.39
sI34
F0.21
sI35
F0.09999999999999987
sI36
F0.65
sI37
F-0.4
sI38
F0.7899999999999999
sI39
F0.41000000000000003
sI40
F1.3400000000000003
sI41
F-0.23000000000000007
sI42
F-0.16
sI43
F0.33000000000000007
sI44
F-1.02
ssg5
I0
ssI55
(dp205
g3
(dp206
I0
F0.2199999999999999
sI1
F1.1400000000000001
sI2
F0.5700000000000001
sI3
F0.13000000000000017
sI4
F0.36
sI5
F-1.08
sI6
F-0.9299999999999998
sI7
F-0.42000000000000004
sI8
F1.7400000000000007
sI9
F0.62
sI10
F-0.7300000000000001
sI11
F-0.7300000000000001
sI12
F1.2400000000000002
sI13
F-0.31000000000000005
sI14
F-0.9999999999999999
sI15
F-0.49
sI16
F-1.06
sI17
F1.05
sI18
F-1.5300000000000005
sI19
F0.19000000000000003
sI20
F-0.49
sI21
F2.9400000000000017
sI22
F-1.2400000000000002
sI23
F-0.5
sI24
F-1.6300000000000006
sI25
F-1.3800000000000003
sI26
F-0.21000000000000016
sI27
F0.08000000000000002
sI28
F-0.17000000000000023
sI29
F-0.19999999999999998
sI30
F0.6000000000000001
sI31
F0.24999999999999997
sI32
F0.6700000000000002
sI33
F-0.06
sI34
F0.9800000000000001
sI35
F0.09999999999999987
sI36
F-0.61
sI37
F1.2200000000000002
sI38
F-0.5100000000000001
sI39
F0.05999999999999994
sI40
F0.12000000000000016
sI41
F-1.3600000000000003
sI42
F0.7300000000000001
sI43
F0.3500000000000001
sI44
F-0.009999999999999981
ssg5
I0
ssI56
(dp207
g3
(dp208
I0
F1.4700000000000004
sI1
F-0.13
sI2
F2.350000000000001
sI3
F1.6200000000000006
sI4
F0.41000000000000003
sI5
F0.6799999999999999
sI6
F1.11
sI7
F1.5100000000000005
sI8
F-0.61
sI9
F0.039999999999999786
sI10
F1.6200000000000006
sI11
F-0.009999999999999981
sI12
F-0.5300000000000001
sI13
F0.04999999999999996
sI14
F1.2300000000000002
sI15
F0.10000000000000003
sI16
F0.12000000000000005
sI17
F0.010000000000000037
sI18
F-0.6699999999999998
sI19
F0.28
sI20
F0.4500000000000002
sI21
F-1.25
sI22
F0.7700000000000001
sI23
F0.24999999999999997
sI24
F-0.42000000000000004
sI25
F0.59
sI26
F1.3877787807814457e-16
sI27
F-2.180000000000001
sI28
F1.5000000000000004
sI29
F0.06999999999999995
sI30
F-0.19000000000000003
sI31
F-0.9600000000000001
sI32
F-0.5200000000000001
sI33
F-0.7
sI34
F-0.91
sI35
F-0.8099999999999999
sI36
F0.5800000000000001
sI37
F-0.15000000000000005
sI38
F0.7300000000000001
sI39
F1.06
sI40
F1.4700000000000004
sI41
F1.5200000000000005
sI42
F-0.44000000000000006
sI43
F0.5
sI44
F-0.09999999999999998
ssg5
I0
ssI57
(dp209
g3
(dp210
I0
F-0.31000000000000016
sI1
F0.99
sI2
F0.0500000000000001
sI3
F-0.5800000000000002
sI4
F-0.3500000000000001
sI5
F0.7399999999999999
sI6
F-1.4500000000000004
sI7
F-0.6
sI8
F-0.01999999999999999
sI9
F-1.8900000000000008
sI10
F0.5399999999999999
sI11
F0.44999999999999996
sI12
F-0.07999999999999996
sI13
F0.08999999999999997
sI14
F-1.3200000000000003
sI15
F1.2400000000000002
sI16
F0.3
sI17
F-0.6100000000000001
sI18
F1.1300000000000001
sI19
F-2.230000000000001
sI20
F0.7699999999999999
sI21
F0.16
sI22
F-1.02
sI23
F0.49
sI24
F0.1299999999999999
sI25
F-0.69
sI26
F-1.12
sI27
F0.6700000000000002
sI28
F-1.1900000000000002
sI29
F-1.6300000000000006
sI30
F-0.6399999999999999
sI31
F0.8799999999999999
sI32
F-0.9899999999999999
sI33
F-0.24000000000000019
sI34
F-0.48
sI35
F-1.03
sI36
F1.5100000000000005
sI37
F1.4000000000000004
sI38
F0.3400000000000001
sI39
F0.26
sI40
F1.17
sI41
F1.4300000000000004
sI42
F0.29000000000000015
sI43
F0.6799999999999999
sI44
F1.3200000000000003
ssg5
I0
ssI58
(dp211
g3
(dp212
I0
F-0.84
sI1
F1.3700000000000003
sI2
F-0.36
sI3
F-0.3700000000000001
sI4
F0.9999999999999999
sI5
F-0.9
sI6
F-0.9899999999999999
sI7
F-0.3600000000000001
sI8
F-0.14000000000000007
sI9
F-0.10999999999999999
sI10
F-0.5200000000000001
sI11
F1.32
sI12
F1.1600000000000001
sI13
F-1.3
sI14
F0.26000000000000023
sI15
F0.39
sI16
F-0.1500000000000001
sI17
F-0.71
sI18
F1.2600000000000002
sI19
F1.29
sI20
F0.020000000000000046
sI21
F-1.8000000000000007
sI22
F-1.5400000000000005
sI23
F-0.5400000000000001
sI24
F1.04
sI25
F0.97
sI26
F0.08000000000000002
sI27
F0.73
sI28
F-0.59
sI29
F-0.89
sI30
F-1.1500000000000001
sI31
F-0.6499999999999999
sI32
F0.18000000000000002
sI33
F-0.6800000000000002
sI34
F1.0999999999999999
sI35
F-0.07999999999999996
sI36
F1.9700000000000006
sI37
F0.27
sI38
F0.9599999999999999
sI39
F-1.3000000000000003
sI40
F-1.01
sI41
F1.5000000000000002
sI42
F-0.07
sI43
F-0.11000000000000004
sI44
F-1.2600000000000002
ssg5
I0
ssI59
(dp213
g3
(dp214
I0
F-2.610000000000001
sI1
F-0.9700000000000001
sI2
F0.28
sI3
F-0.44000000000000017
sI4
F1.5800000000000005
sI5
F-0.91
sI6
F-0.9500000000000001
sI7
F1.2800000000000002
sI8
F-0.5700000000000001
sI9
F-0.9799999999999999
sI10
F-1.4300000000000004
sI11
F-0.7600000000000001
sI12
F-0.17999999999999997
sI13
F-0.5200000000000001
sI14
F0.41000000000000003
sI15
F-0.23000000000000018
sI16
F-0.19000000000000014
sI17
F0.33000000000000007
sI18
F0.35
sI19
F1.01
sI20
F1.04
sI21
F-1.01
sI22
F0.01999999999999999
sI23
F0.7799999999999999
sI24
F-0.04999999999999996
sI25
F0.07999999999999996
sI26
F0.66
sI27
F-0.30000000000000004
sI28
F1.2
sI29
F0.14999999999999997
sI30
F1.2800000000000002
sI31
F-0.52
sI32
F-2.9300000000000015
sI33
F1.6300000000000006
sI34
F1.4000000000000004
sI35
F1.4600000000000004
sI36
F-0.93
sI37
F-0.6100000000000001
sI38
F0.40000000000000013
sI39
F0.58
sI40
F-0.16000000000000011
sI41
F-1.01
sI42
F1.8900000000000006
sI43
F-1.2
sI44
F-0.6500000000000001
ssg5
I0
ssI60
(dp215
g3
(dp216
I0
F0.42000000000000004
sI1
F0.27000000000000013
sI2
F-1.1400000000000001
sI3
F-0.8400000000000001
sI4
F1.3200000000000003
sI5
F-0.9699999999999999
sI6
F0.7
sI7
F0.40000000000000013
sI8
F-0.38
sI9
F0.13000000000000006
sI10
F-0.4800000000000001
sI11
F-0.9499999999999998
sI12
F0.22000000000000017
sI13
F-1.02
sI14
F-1.7000000000000006
sI15
F1.4900000000000002
sI16
F0.1299999999999999
sI17
F-1.2700000000000002
sI18
F-0.14
sI19
F-1.5800000000000003
sI20
F0.17000000000000012
sI21
F-0.8300000000000001
sI22
F-0.51
sI23
F-1.6300000000000006
sI24
F0.6
sI25
F-0.06000000000000011
sI26
F1.9800000000000009
sI27
F1.3200000000000003
sI28
F-0.8400000000000001
sI29
F2.230000000000001
sI30
F-0.23000000000000018
sI31
F0.9900000000000001
sI32
F-0.09999999999999998
sI33
F1.3400000000000003
sI34
F-2.7755575615628914e-17
sI35
F-0.8300000000000001
sI36
F-0.53
sI37
F0.28
sI38
F1.5800000000000005
sI39
F-0.4600000000000001
sI40
F0.8900000000000001
sI41
F-0.45999999999999996
sI42
F0.38
sI43
F-0.22000000000000006
sI44
F0.18000000000000002
ssg5
I0
ssI61
(dp217
g3
(dp218
I0
F0.4700000000000002
sI1
F-1.1400000000000001
sI2
F0.93
sI3
F-0.38
sI4
F-0.36
sI5
F1.1900000000000002
sI6
F-0.93
sI7
F-1.6100000000000005
sI8
F-0.5400000000000001
sI9
F-1.3500000000000003
sI10
F0.33000000000000007
sI11
F0.4
sI12
F-0.6
sI13
F0.06999999999999995
sI14
F-1.5300000000000005
sI15
F-1.8300000000000007
sI16
F0.45999999999999996
sI17
F-1.3800000000000003
sI18
F0.7100000000000001
sI19
F-0.7499999999999999
sI20
F1.1500000000000001
sI21
F-0.7700000000000001
sI22
F0.28
sI23
F0.58
sI24
F0.58
sI25
F1.01
sI26
F0.050000000000000044
sI27
F-0.81
sI28
F0.13000000000000017
sI29
F-2.240000000000001
sI30
F-0.8900000000000001
sI31
F0.3500000000000001
sI32
F0.2500000000000001
sI33
F-0.8
sI34
F-1.4700000000000004
sI35
F0.11000000000000004
sI36
F1.5600000000000005
sI37
F0.6799999999999999
sI38
F0.10999999999999976
sI39
F-0.64
sI40
F0.7
sI41
F0.83
sI42
F0.85
sI43
F-1.19
sI44
F-0.8300000000000001
ssg5
I0
ssI62
(dp219
g3
(dp220
I0
F0.6799999999999999
sI1
F-1.7900000000000007
sI2
F0.07999999999999996
sI3
F0.029999999999999777
sI4
F-1.1500000000000001
sI5
F0.7200000000000001
sI6
F-0.7900000000000001
sI7
F-0.6799999999999999
sI8
F0.73
sI9
F-0.58
sI10
F-0.41000000000000014
sI11
F-0.48
sI12
F0.53
sI13
F-0.16000000000000011
sI14
F0.53
sI15
F-1.2700000000000002
sI16
F-1.9300000000000006
sI17
F0.10999999999999982
sI18
F0.43999999999999995
sI19
F1.1700000000000002
sI20
F0.8400000000000001
sI21
F-1.3600000000000003
sI22
F1.12
sI23
F-0.9299999999999999
sI24
F-1.11
sI25
F0.5200000000000001
sI26
F0.020000000000000157
sI27
F1.3900000000000001
sI28
F0.22000000000000006
sI29
F-1.09
sI30
F-1.9200000000000008
sI31
F-0.45999999999999996
sI32
F-1.9000000000000006
sI33
F-0.08999999999999997
sI34
F0.7700000000000001
sI35
F0.09999999999999998
sI36
F0.9999999999999999
sI37
F0.37
sI38
F0.29000000000000004
sI39
F0.9600000000000001
sI40
F-0.18000000000000024
sI41
F0.7500000000000001
sI42
F-1.7500000000000007
sI43
F-1.8800000000000008
sI44
F-1.2200000000000002
ssg5
I0
ssI63
(dp221
g3
(dp222
I0
F-0.5499999999999999
sI1
F0.3799999999999999
sI2
F0.8299999999999998
sI3
F-0.39
sI4
F-0.8700000000000001
sI5
F0.48
sI6
F1.1300000000000001
sI7
F-0.61
sI8
F-0.7799999999999999
sI9
F0.21000000000000005
sI10
F-1.9300000000000008
sI11
F-0.6599999999999999
sI12
F0.11000000000000004
sI13
F0.59
sI14
F0.86
sI15
F-0.37
sI16
F-1.4000000000000004
sI17
F-0.45000000000000007
sI18
F-0.029999999999999943
sI19
F1.9300000000000006
sI20
F0.64
sI21
F-0.9600000000000001
sI22
F0.010000000000000037
sI23
F-0.36
sI24
F1.4400000000000004
sI25
F0.49
sI26
F0.75
sI27
F1.25
sI28
F-1.8700000000000008
sI29
F-1.4600000000000004
sI30
F1.2300000000000002
sI31
F0.38
sI32
F0.9600000000000001
sI33
F0.8500000000000001
sI34
F-0.29000000000000004
sI35
F0.7799999999999999
sI36
F-0.83
sI37
F0.44000000000000006
sI38
F-0.3700000000000001
sI39
F1.11
sI40
F-0.5399999999999999
sI41
F-0.24000000000000019
sI42
F2.270000000000001
sI43
F1.9600000000000009
sI44
F-0.32000000000000006
ssg5
I0
ssI64
(dp223
g3
(dp224
I0
F-2.190000000000001
sI1
F0.9600000000000001
sI2
F-0.8
sI3
F0.91
sI4
F0.9599999999999999
sI5
F-1.5700000000000005
sI6
F1.1900000000000002
sI7
F-0.12
sI8
F-0.8699999999999999
sI9
F-0.19000000000000014
sI10
F-0.7899999999999999
sI11
F0.47
sI12
F-1.6600000000000004
sI13
F0.37
sI14
F-0.17999999999999997
sI15
F-1.3300000000000003
sI16
F0.24000000000000019
sI17
F-0.12000000000000005
sI18
F0.62
sI19
F-0.05000000000000021
sI20
F-0.6400000000000001
sI21
F0.59
sI22
F2.270000000000001
sI23
F-0.9799999999999999
sI24
F0.04000000000000001
sI25
F-0.85
sI26
F-1.05
sI27
F-0.93
sI28
F0.01999999999999988
sI29
F-0.029999999999999943
sI30
F-0.47
sI31
F0.7500000000000001
sI32
F-0.030000000000000054
sI33
F-0.9599999999999999
sI34
F-1.1300000000000001
sI35
F1.01
sI36
F2.7755575615628914e-17
sI37
F1.01
sI38
F-0.06
sI39
F-0.23000000000000007
sI40
F0.27
sI41
F0.9499999999999998
sI42
F1.2
sI43
F-0.4700000000000002
sI44
F1.4800000000000002
ssg5
I0
ssI65
(dp225
g3
(dp226
I0
F-0.7300000000000001
sI1
F1.5300000000000005
sI2
F-0.8
sI3
F0.91
sI4
F0.24999999999999997
sI5
F1.1300000000000001
sI6
F-0.17999999999999997
sI7
F-0.10000000000000003
sI8
F-0.51
sI9
F-0.5100000000000001
sI10
F-0.9999999999999999
sI11
F1.4600000000000004
sI12
F-0.28
sI13
F-0.7600000000000001
sI14
F-1.2200000000000002
sI15
F0.7799999999999999
sI16
F-0.26
sI17
F0.33000000000000007
sI18
F-0.4
sI19
F1.6700000000000004
sI20
F-2.6600000000000015
sI21
F-0.8099999999999999
sI22
F0.17000000000000012
sI23
F-0.18999999999999997
sI24
F-0.28
sI25
F0.81
sI26
F-0.22000000000000006
sI27
F-1.9300000000000006
sI28
F-0.75
sI29
F0.08000000000000002
sI30
F-0.7999999999999999
sI31
F-1.4600000000000002
sI32
F-0.63
sI33
F-1.19
sI34
F-0.7300000000000001
sI35
F-0.8799999999999999
sI36
F-1.3400000000000003
sI37
F-0.6
sI38
F-0.37
sI39
F-0.5900000000000002
sI40
F-0.6800000000000002
sI41
F0.23000000000000018
sI42
F0.51
sI43
F0.45999999999999996
sI44
F-0.45000000000000007
ssg5
I0
ssI66
(dp227
g3
(dp228
I0
F-0.21000000000000005
sI1
F-0.5600000000000002
sI2
F0.9699999999999999
sI3
F0.59
sI4
F0.93
sI5
F-1.4700000000000004
sI6
F-0.73
sI7
F-0.5500000000000002
sI8
F0.22
sI9
F-1.05
sI10
F0.03
sI11
F0.16
sI12
F0.57
sI13
F-1.04
sI14
F0.39
sI15
F0.5700000000000002
sI16
F-0.6499999999999999
sI17
F0.3200000000000002
sI18
F-0.18999999999999997
sI19
F-1.4800000000000002
sI20
F-1.8700000000000006
sI21
F-1.05
sI22
F-0.17
sI23
F0.21999999999999995
sI24
F1.2100000000000002
sI25
F-0.45999999999999996
sI26
F-0.11000000000000004
sI27
F0.09999999999999987
sI28
F0.5100000000000001
sI29
F0.13000000000000006
sI30
F-2.1100000000000008
sI31
F0.1500000000000001
sI32
F1.5300000000000005
sI33
F1.18
sI34
F-1.27
sI35
F0.72
sI36
F0.42000000000000004
sI37
F1.01
sI38
F-2.080000000000001
sI39
F-0.26
sI40
F0.6
sI41
F-0.07
sI42
F-0.18000000000000013
sI43
F0.9999999999999999
sI44
F0.54
ssg5
I0
ssI67
(dp229
g3
(dp230
I0
F-0.38
sI1
F-0.11999999999999983
sI2
F-0.030000000000000054
sI3
F-0.5100000000000001
sI4
F0.08000000000000002
sI5
F1.1600000000000001
sI6
F-0.22000000000000006
sI7
F0.08000000000000002
sI8
F0.3600000000000001
sI9
F-0.8499999999999999
sI10
F0.3700000000000001
sI11
F-0.23999999999999996
sI12
F0.82
sI13
F-1.19
sI14
F-0.03
sI15
F1.08
sI16
F0.8099999999999999
sI17
F-1.6700000000000006
sI18
F-0.6500000000000001
sI19
F0.52
sI20
F-0.21000000000000005
sI21
F1.0999999999999999
sI22
F0.9599999999999999
sI23
F-1.25
sI24
F-0.44000000000000006
sI25
F1.4600000000000004
sI26
F-0.75
sI27
F-0.2500000000000001
sI28
F-0.93
sI29
F-1.11
sI30
F0.5400000000000001
sI31
F-1.4700000000000004
sI32
F0.31000000000000005
sI33
F-1.4900000000000002
sI34
F1.17
sI35
F-0.48
sI36
F-0.13000000000000017
sI37
F-0.24000000000000007
sI38
F-0.7400000000000001
sI39
F-1.3600000000000003
sI40
F1.11
sI41
F0.17000000000000023
sI42
F-1.2700000000000002
sI43
F-0.8499999999999999
sI44
F-0.22000000000000006
ssg5
I0
ssI68
(dp231
g3
(dp232
I0
F0.8799999999999999
sI1
F0.21000000000000016
sI2
F-1.8600000000000008
sI3
F0.54
sI4
F0.23000000000000018
sI5
F-0.43000000000000016
sI6
F-1.2600000000000002
sI7
F0.96
sI8
F-1.4500000000000004
sI9
F0.42000000000000004
sI10
F1.2200000000000002
sI11
F-0.44999999999999996
sI12
F-0.5599999999999999
sI13
F-0.27000000000000013
sI14
F0.07000000000000012
sI15
F0.050000000000000044
sI16
F-1.0
sI17
F1.07
sI18
F-0.8899999999999999
sI19
F0.44000000000000006
sI20
F-0.7799999999999999
sI21
F-0.8999999999999999
sI22
F0.8099999999999999
sI23
F1.01
sI24
F-0.48
sI25
F0.31
sI26
F-1.7100000000000004
sI27
F-1.03
sI28
F-0.44999999999999996
sI29
F-0.08000000000000002
sI30
F1.4900000000000004
sI31
F-0.9400000000000001
sI32
F-0.37
sI33
F0.93
sI34
F-0.23000000000000007
sI35
F-1.5700000000000005
sI36
F-0.42000000000000004
sI37
F-2.0800000000000005
sI38
F0.56
sI39
F1.5
sI40
F0.3300000000000002
sI41
F0.93
sI42
F1.1400000000000001
sI43
F0.7600000000000001
sI44
F-0.8399999999999999
ssg5
I0
ssI69
(dp233
g3
(dp234
I0
F0.30000000000000004
sI1
F1.3300000000000003
sI2
F0.010000000000000037
sI3
F-0.8899999999999999
sI4
F0.45999999999999996
sI5
F-0.19000000000000003
sI6
F-0.10999999999999999
sI7
F-0.26
sI8
F0.54
sI9
F0.69
sI10
F-0.16000000000000011
sI11
F-0.35
sI12
F-0.19999999999999987
sI13
F0.14999999999999997
sI14
F1.36
sI15
F-0.41000000000000014
sI16
F-0.58
sI17
F-1.4500000000000004
sI18
F-1.08
sI19
F1.17
sI20
F-0.01999999999999999
sI21
F-0.62
sI22
F0.18000000000000002
sI23
F0.17000000000000018
sI24
F-0.04000000000000001
sI25
F0.85
sI26
F-0.9
sI27
F0.6900000000000001
sI28
F-1.7100000000000004
sI29
F0.16
sI30
F0.6800000000000002
sI31
F1.1900000000000002
sI32
F-1.1900000000000002
sI33
F-0.92
sI34
F-0.029999999999999888
sI35
F-0.8400000000000001
sI36
F-0.8400000000000001
sI37
F-0.3299999999999999
sI38
F0.7600000000000001
sI39
F-0.09000000000000025
sI40
F0.5100000000000001
sI41
F0.24999999999999997
sI42
F2.390000000000001
sI43
F-1.4000000000000004
sI44
F0.43999999999999995
ssg5
I0
ssI70
(dp235
g3
(dp236
I0
F0.6200000000000001
sI1
F2.610000000000001
sI2
F1.3900000000000001
sI3
F0.17000000000000012
sI4
F0.61
sI5
F-0.81
sI6
F0.22000000000000017
sI7
F-0.18000000000000002
sI8
F0.09000000000000002
sI9
F0.07999999999999996
sI10
F-0.33999999999999997
sI11
F-0.3399999999999999
sI12
F0.52
sI13
F-0.30000000000000016
sI14
F0.9400000000000001
sI15
F-0.44000000000000006
sI16
F1.3400000000000003
sI17
F-1.8500000000000008
sI18
F-1.4400000000000004
sI19
F0.92
sI20
F-0.71
sI21
F-0.05999999999999989
sI22
F-0.43999999999999995
sI23
F0.55
sI24
F1.4400000000000004
sI25
F0.5
sI26
F1.0499999999999998
sI27
F0.27
sI28
F-0.27
sI29
F-0.8699999999999999
sI30
F0.17000000000000023
sI31
F0.7200000000000001
sI32
F-0.5700000000000002
sI33
F-0.5
sI34
F1.3400000000000003
sI35
F-1.6300000000000006
sI36
F0.7999999999999999
sI37
F-0.9500000000000001
sI38
F-0.6000000000000001
sI39
F-0.8099999999999999
sI40
F-0.22000000000000006
sI41
F-1.02
sI42
F0.8400000000000001
sI43
F0.23000000000000007
sI44
F-0.49
ssg5
I0
ssI71
(dp237
g3
(dp238
I0
F-0.52
sI1
F0.33000000000000007
sI2
F0.7999999999999999
sI3
F-0.4
sI4
F0.28
sI5
F0.19999999999999998
sI6
F-1.1300000000000001
sI7
F0.85
sI8
F0.06
sI9
F0.28
sI10
F0.6799999999999999
sI11
F-0.62
sI12
F-0.9899999999999999
sI13
F-0.38
sI14
F1.3877787807814457e-16
sI15
F0.5700000000000002
sI16
F0.6000000000000001
sI17
F0.7700000000000001
sI18
F-0.5900000000000001
sI19
F-0.34
sI20
F0.26
sI21
F-0.6300000000000001
sI22
F0.28
sI23
F0.17
sI24
F-1.3700000000000003
sI25
F-0.020000000000000046
sI26
F0.7500000000000001
sI27
F1.7600000000000007
sI28
F-1.7100000000000006
sI29
F-0.9799999999999999
sI30
F0.040000000000000174
sI31
F2.170000000000001
sI32
F-0.22000000000000006
sI33
F0.010000000000000037
sI34
F1.5300000000000005
sI35
F-0.7900000000000001
sI36
F0.42000000000000004
sI37
F0.24000000000000007
sI38
F-1.2300000000000002
sI39
F1.5900000000000005
sI40
F-0.04000000000000006
sI41
F-0.64
sI42
F0.7300000000000001
sI43
F-0.8599999999999999
sI44
F-0.30000000000000004
ssg5
I0
ssI72
(dp239
g3
(dp240
I0
F-0.3499999999999999
sI1
F0.44000000000000006
sI2
F0.7499999999999999
sI3
F0.42000000000000004
sI4
F-0.93
sI5
F0.8300000000000001
sI6
F0.47
sI7
F-0.14000000000000007
sI8
F0.39
sI9
F0.43000000000000005
sI10
F1.0999999999999999
sI11
F0.47
sI12
F-2.350000000000001
sI13
F0.08000000000000002
sI14
F-1.1500000000000001
sI15
F-0.8699999999999999
sI16
F-2.0300000000000007
sI17
F0.19000000000000025
sI18
F-0.3300000000000002
sI19
F-1.7200000000000006
sI20
F-0.8
sI21
F0.44999999999999996
sI22
F1.2800000000000002
sI23
F-1.16
sI24
F-0.54
sI25
F0.57
sI26
F-1.0399999999999998
sI27
F-0.21000000000000016
sI28
F1.3700000000000003
sI29
F-0.7699999999999999
sI30
F0.69
sI31
F-0.43000000000000005
sI32
F0.8600000000000001
sI33
F-0.3700000000000002
sI34
F0.09999999999999987
sI35
F-0.7100000000000001
sI36
F0.13000000000000006
sI37
F1.02
sI38
F-0.10999999999999976
sI39
F0.49
sI40
F0.5499999999999999
sI41
F-0.8200000000000001
sI42
F-0.8499999999999999
sI43
F-0.8599999999999999
sI44
F0.31999999999999995
ssg5
I0
ssI73
(dp241
g3
(dp242
I0
F-0.81
sI1
F-0.5400000000000001
sI2
F0.44999999999999996
sI3
F1.8300000000000005
sI4
F-1.5600000000000003
sI5
F-1.06
sI6
F-0.41000000000000003
sI7
F0.66
sI8
F-1.4100000000000004
sI9
F-2.000000000000001
sI10
F-0.9099999999999999
sI11
F0.48
sI12
F1.3800000000000003
sI13
F2.9000000000000017
sI14
F-1.15
sI15
F-0.4800000000000002
sI16
F0.47
sI17
F0.8999999999999999
sI18
F0.8
sI19
F1.7200000000000006
sI20
F1.4000000000000001
sI21
F0.010000000000000037
sI22
F0.6
sI23
F0.43000000000000005
sI24
F0.6699999999999999
sI25
F-2.080000000000001
sI26
F-0.5800000000000002
sI27
F0.7200000000000001
sI28
F0.17
sI29
F0.31000000000000005
sI30
F-0.9400000000000001
sI31
F-0.65
sI32
F-0.14
sI33
F-0.7
sI34
F-0.9799999999999999
sI35
F0.36
sI36
F-1.2600000000000002
sI37
F-1.1400000000000001
sI38
F-1.7200000000000006
sI39
F0.53
sI40
F0.81
sI41
F0.39000000000000024
sI42
F-0.5599999999999999
sI43
F-0.8999999999999999
sI44
F1.4300000000000004
ssg5
I0
ssI74
(dp243
g3
(dp244
I0
F0.20000000000000015
sI1
F-1.1400000000000001
sI2
F-0.28
sI3
F-1.02
sI4
F0.2500000000000002
sI5
F0.00999999999999987
sI6
F-0.039999999999999786
sI7
F-0.22999999999999995
sI8
F-0.7
sI9
F-0.41999999999999993
sI10
F-1.4200000000000004
sI11
F-0.9499999999999998
sI12
F-0.41000000000000003
sI13
F-0.36
sI14
F1.2
sI15
F0.5100000000000001
sI16
F1.09
sI17
F0.10999999999999999
sI18
F1.2200000000000002
sI19
F-0.17
sI20
F1.5800000000000003
sI21
F0.5199999999999999
sI22
F2.8000000000000016
sI23
F0.38
sI24
F-0.20000000000000004
sI25
F1.5200000000000005
sI26
F0.5
sI27
F-0.8099999999999999
sI28
F1.5900000000000005
sI29
F0.7100000000000001
sI30
F-0.62
sI31
F0.8499999999999998
sI32
F-0.07
sI33
F0.31999999999999995
sI34
F-1.2100000000000002
sI35
F0.48
sI36
F-0.18000000000000002
sI37
F1.9900000000000009
sI38
F-2.240000000000001
sI39
F-0.5
sI40
F0.47
sI41
F-1.2800000000000002
sI42
F1.29
sI43
F-1.4000000000000004
sI44
F-2.130000000000001
ssg5
I0
ssI75
(dp245
g3
(dp246
I0
F-0.29000000000000004
sI1
F1.3100000000000003
sI2
F-0.09999999999999998
sI3
F0.8599999999999999
sI4
F1.8900000000000008
sI5
F0.39
sI6
F-0.6000000000000001
sI7
F0.20000000000000015
sI8
F0.83
sI9
F0.30000000000000004
sI10
F-0.13000000000000006
sI11
F0.21000000000000005
sI12
F0.39
sI13
F0.3800000000000002
sI14
F1.2100000000000002
sI15
F0.69
sI16
F0.7599999999999999
sI17
F0.32000000000000006
sI18
F0.33000000000000007
sI19
F-0.2600000000000001
sI20
F1.37
sI21
F0.4999999999999999
sI22
F1.1700000000000002
sI23
F0.17999999999999985
sI24
F-0.91
sI25
F-1.5300000000000005
sI26
F0.6500000000000001
sI27
F-1.3000000000000003
sI28
F-1.6000000000000005
sI29
F-0.30000000000000004
sI30
F0.22000000000000006
sI31
F0.74
sI32
F2.060000000000001
sI33
F1.08
sI34
F0.9799999999999999
sI35
F-0.6799999999999999
sI36
F0.5800000000000001
sI37
F0.32000000000000006
sI38
F0.8500000000000001
sI39
F-1.5100000000000005
sI40
F1.09
sI41
F0.04000000000000006
sI42
F0.21000000000000016
sI43
F0.8899999999999998
sI44
F0.31000000000000016
ssg5
I0
ssI76
(dp247
g3
(dp248
I0
F-0.72
sI1
F-0.51
sI2
F-1.1500000000000001
sI3
F0.62
sI4
F1.7800000000000007
sI5
F-0.0500000000000001
sI6
F0.6599999999999999
sI7
F-0.31000000000000005
sI8
F1.3100000000000003
sI9
F-0.5199999999999999
sI10
F-0.81
sI11
F0.14000000000000007
sI12
F-0.9500000000000001
sI13
F-0.73
sI14
F0.93
sI15
F-1.5600000000000005
sI16
F0.6499999999999999
sI17
F0.26
sI18
F-0.1299999999999999
sI19
F0.93
sI20
F-0.8699999999999999
sI21
F0.5499999999999999
sI22
F-0.08999999999999997
sI23
F0.24000000000000007
sI24
F-1.03
sI25
F0.7
sI26
F0.5599999999999999
sI27
F0.5999999999999999
sI28
F-0.5499999999999999
sI29
F-1.06
sI30
F-1.4600000000000002
sI31
F-0.8
sI32
F0.7599999999999999
sI33
F-0.8199999999999998
sI34
F-1.11
sI35
F-0.49
sI36
F-0.19000000000000003
sI37
F0.10000000000000003
sI38
F0.5399999999999999
sI39
F-1.2300000000000002
sI40
F1.3100000000000003
sI41
F0.35
sI42
F-0.6599999999999999
sI43
F-0.38
sI44
F0.39
ssg5
I0
ssI77
(dp249
g3
(dp250
I0
F1.7800000000000007
sI1
F-0.17000000000000012
sI2
F1.5700000000000003
sI3
F-0.10999999999999999
sI4
F-0.17
sI5
F-0.16000000000000011
sI6
F-1.7500000000000004
sI7
F0.17
sI8
F1.5600000000000003
sI9
F0.6000000000000001
sI10
F-0.42000000000000004
sI11
F-0.20000000000000004
sI12
F-0.29000000000000015
sI13
F0.14000000000000018
sI14
F0.8799999999999999
sI15
F-0.4700000000000001
sI16
F-1.4500000000000004
sI17
F-0.18999999999999997
sI18
F0.10000000000000003
sI19
F-0.31
sI20
F0.25000000000000006
sI21
F-0.58
sI22
F-0.16
sI23
F0.020000000000000046
sI24
F0.10000000000000003
sI25
F0.48
sI26
F0.8
sI27
F1.6900000000000004
sI28
F-0.41000000000000014
sI29
F-0.05999999999999994
sI30
F0.64
sI31
F0.5499999999999999
sI32
F0.44999999999999996
sI33
F0.10000000000000014
sI34
F-1.4100000000000004
sI35
F0.9400000000000001
sI36
F0.8799999999999999
sI37
F0.7200000000000001
sI38
F0.7300000000000001
sI39
F0.09999999999999998
sI40
F-0.6699999999999999
sI41
F0.2599999999999999
sI42
F-1.3400000000000003
sI43
F-0.67
sI44
F-0.58
ssg5
I0
ssI78
(dp251
g3
(dp252
I0
F-0.82
sI1
F-0.65
sI2
F0.04000000000000001
sI3
F-0.54
sI4
F1.02
sI5
F0.06999999999999984
sI6
F0.55
sI7
F0.51
sI8
F2.1600000000000006
sI9
F0.32
sI10
F1.6500000000000006
sI11
F-0.5200000000000001
sI12
F-1.3500000000000003
sI13
F-0.9
sI14
F-0.85
sI15
F-1.3200000000000003
sI16
F-0.49
sI17
F-1.9500000000000008
sI18
F0.33000000000000007
sI19
F-0.44000000000000006
sI20
F0.3400000000000002
sI21
F-0.28
sI22
F-0.5
sI23
F-1.3800000000000001
sI24
F-0.61
sI25
F-0.7200000000000001
sI26
F1.5500000000000005
sI27
F0.22
sI28
F-0.6100000000000001
sI29
F-0.57
sI30
F0.6000000000000001
sI31
F-0.24000000000000002
sI32
F0.58
sI33
F0.14000000000000007
sI34
F1.7400000000000007
sI35
F-0.030000000000000054
sI36
F-1.4000000000000001
sI37
F-0.32999999999999996
sI38
F0.91
sI39
F-2.040000000000001
sI40
F0.010000000000000037
sI41
F-0.5499999999999999
sI42
F0.6499999999999999
sI43
F0.81
sI44
F-0.11000000000000004
ssg5
I0
ssI79
(dp253
g3
(dp254
I0
F-0.3400000000000001
sI1
F-0.09999999999999998
sI2
F2.0800000000000005
sI3
F-1.3000000000000003
sI4
F2.260000000000001
sI5
F-1.8700000000000008
sI6
F0.8399999999999999
sI7
F0.23
sI8
F-0.64
sI9
F-1.25
sI10
F-0.93
sI11
F0.09999999999999998
sI12
F-0.75
sI13
F-0.27
sI14
F0.16000000000000011
sI15
F-0.01999999999999999
sI16
F-2.7755575615628914e-17
sI17
F-0.14
sI18
F0.9600000000000001
sI19
F0.82
sI20
F-0.6599999999999999
sI21
F-0.6599999999999999
sI22
F-0.32000000000000006
sI23
F1.4500000000000004
sI24
F0.7299999999999999
sI25
F1.2200000000000002
sI26
F-0.2500000000000001
sI27
F-1.18
sI28
F-1.6100000000000005
sI29
F-0.77
sI30
F-1.18
sI31
F0.38
sI32
F-0.71
sI33
F-0.5299999999999999
sI34
F-0.4
sI35
F-1.04
sI36
F-1.8800000000000008
sI37
F0.7599999999999999
sI38
F-0.8699999999999999
sI39
F-0.64
sI40
F1.8000000000000005
sI41
F-0.65
sI42
F-0.27000000000000013
sI43
F0.6699999999999999
sI44
F0.8300000000000001
ssg5
I0
ssI80
(dp255
g3
(dp256
I0
F0.9500000000000001
sI1
F1.3200000000000003
sI2
F1.4400000000000004
sI3
F-0.9500000000000001
sI4
F-1.8600000000000008
sI5
F1.1300000000000001
sI6
F0.42000000000000004
sI7
F-0.6100000000000001
sI8
F-1.2100000000000002
sI9
F0.1299999999999999
sI10
F1.1900000000000002
sI11
F0.9500000000000001
sI12
F0.61
sI13
F1.8000000000000007
sI14
F-0.15000000000000022
sI15
F1.1600000000000001
sI16
F-1.07
sI17
F-0.040000000000000174
sI18
F0.9500000000000001
sI19
F0.92
sI20
F-0.9700000000000001
sI21
F1.07
sI22
F-1.07
sI23
F-0.03
sI24
F0.21000000000000005
sI25
F1.4600000000000004
sI26
F-0.18000000000000013
sI27
F-0.33000000000000007
sI28
F-0.7999999999999999
sI29
F-1.3100000000000003
sI30
F0.16
sI31
F0.06999999999999984
sI32
F-0.06999999999999995
sI33
F-2.270000000000001
sI34
F2.4200000000000013
sI35
F-0.93
sI36
F1.2700000000000002
sI37
F-0.2500000000000001
sI38
F-1.2300000000000002
sI39
F0.20000000000000015
sI40
F0.9599999999999999
sI41
F0.11000000000000004
sI42
F-1.6600000000000006
sI43
F-1.05
sI44
F0.74
ssg5
I0
ssI81
(dp257
g3
(dp258
I0
F0.23000000000000007
sI1
F-0.7
sI2
F1.5000000000000002
sI3
F-1.6800000000000006
sI4
F0.22999999999999995
sI5
F0.29000000000000026
sI6
F0.52
sI7
F0.4099999999999999
sI8
F1.26
sI9
F-0.93
sI10
F-1.02
sI11
F0.31999999999999995
sI12
F0.44999999999999996
sI13
F0.55
sI14
F0.7800000000000001
sI15
F0.40000000000000013
sI16
F-0.6799999999999999
sI17
F0.56
sI18
F-0.20000000000000004
sI19
F-0.31000000000000016
sI20
F1.1500000000000001
sI21
F0.04000000000000006
sI22
F-0.16000000000000011
sI23
F0.2500000000000001
sI24
F-0.4
sI25
F0.6
sI26
F1.06
sI27
F-0.69
sI28
F-0.08000000000000002
sI29
F1.8100000000000007
sI30
F-2.5200000000000014
sI31
F0.92
sI32
F-1.1400000000000001
sI33
F0.65
sI34
F0.41000000000000003
sI35
F0.8400000000000001
sI36
F-1.12
sI37
F0.8700000000000001
sI38
F1.17
sI39
F0.13000000000000006
sI40
F0.09999999999999998
sI41
F0.22
sI42
F-2.020000000000001
sI43
F0.020000000000000046
sI44
F0.7799999999999999
ssg5
I0
ssI82
(dp259
g3
(dp260
I0
F-0.58
sI1
F0.38
sI2
F-0.44000000000000017
sI3
F1.7200000000000006
sI4
F-1.8600000000000008
sI5
F-0.42000000000000015
sI6
F-0.8900000000000001
sI7
F-0.8099999999999999
sI8
F0.020000000000000157
sI9
F1.01
sI10
F-0.48
sI11
F-0.3400000000000002
sI12
F-0.5199999999999999
sI13
F0.10000000000000014
sI14
F-0.2499999999999998
sI15
F-0.2399999999999999
sI16
F0.42000000000000015
sI17
F0.39
sI18
F-0.6299999999999999
sI19
F-1.1
sI20
F-0.72
sI21
F-1.3000000000000003
sI22
F-0.2500000000000001
sI23
F-1.4500000000000002
sI24
F-0.030000000000000165
sI25
F-0.29000000000000004
sI26
F0.9999999999999999
sI27
F0.23000000000000018
sI28
F-0.54
sI29
F0.1500000000000001
sI30
F0.66
sI31
F0.10000000000000014
sI32
F0.5100000000000001
sI33
F0.41000000000000014
sI34
F-0.2899999999999999
sI35
F0.92
sI36
F0.5
sI37
F0.85
sI38
F0.3600000000000002
sI39
F-0.48
sI40
F0.16000000000000011
sI41
F-1.11
sI42
F1.4700000000000004
sI43
F0.7799999999999999
sI44
F-1.04
ssg5
I0
ssI83
(dp261
g3
(dp262
I0
F-0.9500000000000001
sI1
F-2.000000000000001
sI2
F0.75
sI3
F0.09000000000000025
sI4
F1.8400000000000007
sI5
F0.41000000000000003
sI6
F1.7500000000000007
sI7
F0.22000000000000006
sI8
F0.65
sI9
F-1.0499999999999998
sI10
F-0.33999999999999997
sI11
F-0.8500000000000001
sI12
F0.8700000000000001
sI13
F0.14999999999999997
sI14
F-0.71
sI15
F0.59
sI16
F0.7999999999999999
sI17
F0.19000000000000003
sI18
F-0.5699999999999998
sI19
F-0.8099999999999999
sI20
F2.9800000000000018
sI21
F0.7
sI22
F-0.84
sI23
F1.1400000000000001
sI24
F-0.82
sI25
F0.81
sI26
F0.93
sI27
F0.23000000000000007
sI28
F-1.6600000000000006
sI29
F-1.5100000000000005
sI30
F-0.1299999999999999
sI31
F0.7700000000000001
sI32
F1.5700000000000005
sI33
F-0.16
sI34
F0.20000000000000004
sI35
F-0.6900000000000002
sI36
F0.7999999999999999
sI37
F-0.9799999999999999
sI38
F-0.08000000000000002
sI39
F-0.5
sI40
F-0.5600000000000002
sI41
F-0.6499999999999999
sI42
F0.44999999999999996
sI43
F-0.5599999999999999
sI44
F1.4700000000000002
ssg5
I0
ssI84
(dp263
g3
(dp264
I0
F1.6100000000000005
sI1
F-0.7799999999999999
sI2
F0.29000000000000004
sI3
F0.13999999999999996
sI4
F-1.03
sI5
F2.200000000000001
sI6
F-0.20000000000000015
sI7
F-0.17
sI8
F0.7599999999999999
sI9
F0.43000000000000005
sI10
F-0.31000000000000016
sI11
F0.19000000000000003
sI12
F-0.6
sI13
F-1.4600000000000002
sI14
F-1.6600000000000006
sI15
F0.18999999999999992
sI16
F1.7500000000000007
sI17
F-0.6500000000000001
sI18
F0.01999999999999999
sI19
F-0.77
sI20
F-0.15000000000000005
sI21
F-0.6700000000000002
sI22
F0.9800000000000001
sI23
F0.17999999999999997
sI24
F0.7700000000000001
sI25
F0.8200000000000001
sI26
F0.45000000000000007
sI27
F0.16000000000000011
sI28
F-0.45999999999999996
sI29
F0.5
sI30
F1.3100000000000003
sI31
F-1.01
sI32
F-0.93
sI33
F0.7699999999999999
sI34
F0.5399999999999999
sI35
F-0.5599999999999999
sI36
F-1.02
sI37
F-2.330000000000001
sI38
F1.3600000000000003
sI39
F1.6800000000000006
sI40
F1.01
sI41
F0.19000000000000009
sI42
F0.3400000000000001
sI43
F-0.64
sI44
F0.23000000000000007
ssg5
I0
ssI85
(dp265
g3
(dp266
I0
F-0.27
sI1
F-0.13000000000000006
sI2
F1.6100000000000005
sI3
F0.93
sI4
F0.43000000000000005
sI5
F-0.47
sI6
F-0.6799999999999999
sI7
F-2.9900000000000015
sI8
F-1.17
sI9
F0.24000000000000007
sI10
F-1.03
sI11
F0.6799999999999999
sI12
F-0.7300000000000001
sI13
F-0.8799999999999999
sI14
F0.6799999999999999
sI15
F-0.049999999999999795
sI16
F-0.9999999999999999
sI17
F-1.0599999999999998
sI18
F0.9800000000000001
sI19
F1.5300000000000005
sI20
F1.4000000000000001
sI21
F-0.050000000000000044
sI22
F-2.270000000000001
sI23
F-1.5400000000000005
sI24
F0.5799999999999998
sI25
F-1.2200000000000002
sI26
F0.29000000000000004
sI27
F0.030000000000000165
sI28
F0.16000000000000006
sI29
F-0.07999999999999985
sI30
F0.1499999999999999
sI31
F-0.24999999999999997
sI32
F0.6399999999999999
sI33
F-0.69
sI34
F0.42000000000000004
sI35
F-0.15000000000000005
sI36
F-0.63
sI37
F0.38
sI38
F0.3
sI39
F1.5600000000000005
sI40
F-1.7600000000000007
sI41
F0.8700000000000001
sI42
F-1.0599999999999998
sI43
F0.15000000000000022
sI44
F-1.1800000000000002
ssg5
I0
ssI86
(dp267
g3
(dp268
I0
F-0.19000000000000003
sI1
F1.5600000000000003
sI2
F-0.96
sI3
F0.33000000000000007
sI4
F-0.7100000000000001
sI5
F0.59
sI6
F-0.62
sI7
F0.44000000000000017
sI8
F0.57
sI9
F-0.009999999999999981
sI10
F-0.53
sI11
F0.87
sI12
F-0.040000000000000174
sI13
F0.18999999999999997
sI14
F0.21
sI15
F0.51
sI16
F-0.5100000000000001
sI17
F0.31
sI18
F0.9199999999999999
sI19
F0.42000000000000004
sI20
F0.6600000000000001
sI21
F0.010000000000000037
sI22
F0.35
sI23
F0.29000000000000004
sI24
F0.17000000000000023
sI25
F0.7199999999999999
sI26
F0.9600000000000001
sI27
F0.3300000000000002
sI28
F0.58
sI29
F0.12
sI30
F-0.17
sI31
F0.9799999999999999
sI32
F0.29
sI33
F-1.2400000000000002
sI34
F-0.07000000000000023
sI35
F-2.120000000000001
sI36
F-0.3399999999999999
sI37
F0.6599999999999999
sI38
F-1.1500000000000001
sI39
F-0.22
sI40
F0.27000000000000013
sI41
F0.69
sI42
F0.51
sI43
F-1.0799999999999998
sI44
F-0.04000000000000001
ssg5
I0
ssI87
(dp269
g3
(dp270
I0
F0.3300000000000002
sI1
F1.0599999999999998
sI2
F-0.61
sI3
F-1.2200000000000002
sI4
F1.4000000000000001
sI5
F-0.32
sI6
F0.32000000000000006
sI7
F0.1500000000000001
sI8
F-0.9700000000000001
sI9
F-1.04
sI10
F1.2100000000000002
sI11
F0.72
sI12
F0.030000000000000054
sI13
F1.3200000000000003
sI14
F0.020000000000000046
sI15
F-0.12000000000000005
sI16
F0.5
sI17
F0.18000000000000002
sI18
F-1.5200000000000005
sI19
F-0.7799999999999999
sI20
F-0.26
sI21
F0.81
sI22
F0.45000000000000007
sI23
F-0.45000000000000007
sI24
F-0.94
sI25
F-2.200000000000001
sI26
F-1.03
sI27
F0.29000000000000004
sI28
F1.0799999999999998
sI29
F-0.6
sI30
F-1.7900000000000005
sI31
F-0.9599999999999999
sI32
F-0.9999999999999999
sI33
F1.09
sI34
F1.0399999999999998
sI35
F-0.33000000000000007
sI36
F-1.0599999999999998
sI37
F-0.8
sI38
F1.2400000000000002
sI39
F0.9700000000000001
sI40
F-1.3400000000000003
sI41
F-1.02
sI42
F-0.25000000000000006
sI43
F-0.040000000000000174
sI44
F-0.5299999999999999
ssg5
I0
ssI88
(dp271
g3
(dp272
I0
F0.9400000000000001
sI1
F-0.08000000000000007
sI2
F-0.21
sI3
F0.76
sI4
F-0.8300000000000001
sI5
F-1.3200000000000003
sI6
F0.48
sI7
F0.8999999999999999
sI8
F1.8500000000000008
sI9
F0.009999999999999981
sI10
F1.7000000000000006
sI11
F-0.41000000000000003
sI12
F-0.35
sI13
F-0.11000000000000004
sI14
F-0.45999999999999996
sI15
F1.9100000000000006
sI16
F-0.48
sI17
F-0.29000000000000004
sI18
F0.09000000000000002
sI19
F1.07
sI20
F-2.0700000000000007
sI21
F-0.7700000000000001
sI22
F-0.51
sI23
F0.3800000000000001
sI24
F-0.5499999999999999
sI25
F0.41000000000000003
sI26
F0.23000000000000007
sI27
F0.049999999999999795
sI28
F1.3500000000000003
sI29
F-0.21
sI30
F0.8899999999999999
sI31
F-0.18999999999999997
sI32
F-1.15
sI33
F-0.5499999999999999
sI34
F1.3900000000000003
sI35
F-0.3800000000000001
sI36
F0.6300000000000001
sI37
F-0.06999999999999995
sI38
F0.21000000000000005
sI39
F0.05000000000000021
sI40
F-0.17999999999999997
sI41
F-0.73
sI42
F0.30000000000000004
sI43
F0.09000000000000002
sI44
F-0.54
ssg5
I0
ssI89
(dp273
g3
(dp274
I0
F-0.9699999999999999
sI1
F0.24000000000000007
sI2
F-0.26
sI3
F0.52
sI4
F-0.7599999999999999
sI5
F0.42999999999999994
sI6
F1.0999999999999999
sI7
F-0.93
sI8
F-2.0900000000000007
sI9
F-1.7700000000000005
sI10
F-0.9799999999999999
sI11
F0.4900000000000002
sI12
F-0.5
sI13
F-0.05999999999999994
sI14
F-0.010000000000000037
sI15
F-0.56
sI16
F0.6900000000000001
sI17
F-0.42999999999999994
sI18
F-0.19999999999999998
sI19
F1.4600000000000002
sI20
F-0.5599999999999999
sI21
F-1.03
sI22
F0.61
sI23
F-1.3300000000000003
sI24
F0.8799999999999999
sI25
F0.3400000000000001
sI26
F0.049999999999999906
sI27
F0.7899999999999999
sI28
F-0.5500000000000002
sI29
F0.5499999999999999
sI30
F-0.92
sI31
F-0.41000000000000003
sI32
F-0.51
sI33
F-1.1900000000000002
sI34
F2.360000000000001
sI35
F0.5200000000000001
sI36
F-0.43000000000000005
sI37
F-0.4800000000000001
sI38
F0.51
sI39
F0.6100000000000001
sI40
F0.32999999999999985
sI41
F-1.3900000000000001
sI42
F0.6000000000000001
sI43
F1.3800000000000003
sI44
F0.19999999999999993
ssg5
I0
ssI90
(dp275
g3
(dp276
I0
F0.8999999999999999
sI1
F0.1500000000000001
sI2
F1.1300000000000001
sI3
F0.3500000000000002
sI4
F-0.3700000000000001
sI5
F0.44000000000000017
sI6
F0.31000000000000016
sI7
F1.2400000000000002
sI8
F-0.6
sI9
F-0.23000000000000007
sI10
F0.07999999999999996
sI11
F-0.9799999999999999
sI12
F0.3400000000000001
sI13
F1.9600000000000009
sI14
F0.26
sI15
F0.18999999999999997
sI16
F0.6399999999999999
sI17
F-0.09000000000000002
sI18
F0.3400000000000001
sI19
F-0.009999999999999981
sI20
F-0.7500000000000001
sI21
F-0.30000000000000004
sI22
F0.51
sI23
F0.32000000000000006
sI24
F1.9500000000000008
sI25
F0.7499999999999999
sI26
F-0.4
sI27
F1.03
sI28
F0.48
sI29
F1.0
sI30
F-0.030000000000000054
sI31
F-0.5599999999999999
sI32
F0.18000000000000002
sI33
F-1.4500000000000002
sI34
F0.8899999999999999
sI35
F-1.8000000000000003
sI36
F-0.6599999999999999
sI37
F-0.75
sI38
F1.2800000000000002
sI39
F0.51
sI40
F0.049999999999999906
sI41
F-0.2399999999999999
sI42
F0.4
sI43
F0.27999999999999997
sI44
F1.04
ssg5
I0
ssI91
(dp277
g3
(dp278
I0
F-1.0699999999999998
sI1
F-1.2400000000000002
sI2
F1.3300000000000003
sI3
F-1.6100000000000005
sI4
F-0.07
sI5
F-0.16000000000000011
sI6
F-0.010000000000000148
sI7
F-1.08
sI8
F0.8899999999999999
sI9
F0.09000000000000002
sI10
F-0.9899999999999999
sI11
F1.2000000000000002
sI12
F-0.9700000000000001
sI13
F-1.0799999999999998
sI14
F-1.6800000000000002
sI15
F-0.5500000000000002
sI16
F1.5700000000000005
sI17
F1.6100000000000005
sI18
F0.94
sI19
F-0.24000000000000007
sI20
F-0.33000000000000007
sI21
F0.6400000000000001
sI22
F0.14999999999999997
sI23
F-1.02
sI24
F0.42000000000000004
sI25
F0.48
sI26
F1.02
sI27
F1.4000000000000004
sI28
F1.2500000000000002
sI29
F0.41000000000000003
sI30
F-1.8200000000000007
sI31
F-0.6400000000000001
sI32
F1.6600000000000006
sI33
F0.9799999999999999
sI34
F-1.2400000000000002
sI35
F0.27
sI36
F1.17
sI37
F0.7799999999999999
sI38
F-0.73
sI39
F0.32999999999999996
sI40
F-0.44000000000000006
sI41
F0.5100000000000001
sI42
F0.42000000000000004
sI43
F-0.39
sI44
F-0.4700000000000002
ssg5
I0
ssI92
(dp279
g3
(dp280
I0
F-1.2400000000000002
sI1
F0.15000000000000005
sI2
F-1.0599999999999998
sI3
F0.6800000000000002
sI4
F0.05000000000000021
sI5
F0.19999999999999993
sI6
F0.030000000000000054
sI7
F1.3600000000000003
sI8
F-0.8799999999999999
sI9
F0.27
sI10
F-1.3300000000000003
sI11
F-0.22000000000000006
sI12
F-0.12000000000000005
sI13
F0.48
sI14
F0.6200000000000001
sI15
F0.7100000000000001
sI16
F-0.00999999999999987
sI17
F0.42999999999999994
sI18
F0.41000000000000003
sI19
F0.8799999999999999
sI20
F1.0399999999999998
sI21
F2.160000000000001
sI22
F-0.1499999999999999
sI23
F-1.1500000000000001
sI24
F0.6100000000000001
sI25
F0.13000000000000017
sI26
F-0.8599999999999999
sI27
F0.22000000000000006
sI28
F-0.44999999999999996
sI29
F-0.6699999999999999
sI30
F0.38
sI31
F0.8800000000000001
sI32
F-0.38
sI33
F0.5399999999999999
sI34
F1.8200000000000007
sI35
F-0.10000000000000014
sI36
F-0.33000000000000007
sI37
F-0.19999999999999998
sI38
F1.07
sI39
F-0.6100000000000001
sI40
F0.24000000000000019
sI41
F0.9600000000000001
sI42
F0.09000000000000002
sI43
F-1.2400000000000002
sI44
F0.30000000000000004
ssg5
I0
ssI93
(dp281
g3
(dp282
I0
F0.39000000000000024
sI1
F-0.28
sI2
F0.12000000000000005
sI3
F1.4300000000000004
sI4
F0.27999999999999997
sI5
F0.8999999999999999
sI6
F0.7799999999999999
sI7
F-0.6400000000000001
sI8
F-0.41000000000000003
sI9
F0.7000000000000001
sI10
F-0.030000000000000054
sI11
F0.11000000000000004
sI12
F0.52
sI13
F-0.6599999999999999
sI14
F-0.28000000000000014
sI15
F-0.21999999999999978
sI16
F0.4099999999999998
sI17
F0.3
sI18
F0.41000000000000003
sI19
F0.39
sI20
F0.5600000000000002
sI21
F-1.2600000000000002
sI22
F0.39000000000000024
sI23
F-1.11
sI24
F-1.4900000000000004
sI25
F-0.12000000000000016
sI26
F-1.6000000000000005
sI27
F-0.28
sI28
F1.6300000000000006
sI29
F-0.5599999999999999
sI30
F0.8
sI31
F0.5599999999999999
sI32
F0.3700000000000002
sI33
F-1.5300000000000002
sI34
F0.14999999999999997
sI35
F-0.1499999999999999
sI36
F-1.0999999999999999
sI37
F-0.5700000000000001
sI38
F0.37
sI39
F1.3000000000000003
sI40
F-0.14000000000000007
sI41
F1.7300000000000006
sI42
F-0.84
sI43
F-0.4800000000000002
sI44
F0.6699999999999999
ssg5
I0
ssI94
(dp283
g3
(dp284
I0
F-0.04999999999999996
sI1
F2.020000000000001
sI2
F1.6700000000000006
sI3
F-0.44000000000000017
sI4
F1.9300000000000006
sI5
F1.4500000000000004
sI6
F-1.2000000000000002
sI7
F-0.26
sI8
F0.45000000000000007
sI9
F-0.42000000000000015
sI10
F-0.7600000000000001
sI11
F0.13000000000000006
sI12
F-0.63
sI13
F0.3200000000000002
sI14
F-0.9999999999999999
sI15
F-0.04000000000000006
sI16
F0.04000000000000001
sI17
F1.5500000000000003
sI18
F-2.330000000000001
sI19
F-1.2700000000000002
sI20
F0.4
sI21
F-0.9400000000000001
sI22
F0.54
sI23
F0.3199999999999999
sI24
F-2.130000000000001
sI25
F0.8099999999999999
sI26
F-1.03
sI27
F0.09999999999999992
sI28
F0.64
sI29
F-0.19000000000000003
sI30
F-1.0599999999999998
sI31
F1.2
sI32
F-0.5
sI33
F-0.38
sI34
F0.49
sI35
F0.48
sI36
F0.6
sI37
F-0.30000000000000004
sI38
F-1.4900000000000004
sI39
F-0.9500000000000001
sI40
F0.1200000000000001
sI41
F-0.20999999999999983
sI42
F0.009999999999999981
sI43
F1.5400000000000005
sI44
F0.15000000000000005
ssg5
I0
ssI95
(dp285
g3
(dp286
I0
F-0.9199999999999999
sI1
F0.16000000000000006
sI2
F0.7200000000000001
sI3
F-1.2700000000000002
sI4
F0.9799999999999999
sI5
F0.22000000000000006
sI6
F1.2400000000000002
sI7
F-0.54
sI8
F0.39
sI9
F1.03
sI10
F-0.18000000000000002
sI11
F-1.04
sI12
F-0.7299999999999999
sI13
F1.2800000000000002
sI14
F0.020000000000000046
sI15
F0.8300000000000001
sI16
F-1.4900000000000002
sI17
F-0.04000000000000006
sI18
F-0.24999999999999997
sI19
F0.18000000000000002
sI20
F1.08
sI21
F0.15000000000000002
sI22
F0.9500000000000001
sI23
F0.9799999999999999
sI24
F-0.5300000000000001
sI25
F-1.8300000000000007
sI26
F1.8700000000000006
sI27
F1.0799999999999998
sI28
F0.20000000000000015
sI29
F0.16999999999999996
sI30
F-1.4700000000000002
sI31
F-1.8300000000000005
sI32
F-0.7899999999999999
sI33
F-0.08999999999999997
sI34
F0.7500000000000001
sI35
F-0.33000000000000007
sI36
F0.22000000000000017
sI37
F1.26
sI38
F-0.41000000000000003
sI39
F1.5700000000000005
sI40
F-1.35
sI41
F1.07
sI42
F-0.06
sI43
F0.20000000000000004
sI44
F-0.13000000000000017
ssg5
I0
ssI96
(dp287
g3
(dp288
I0
F1.28
sI1
F0.18000000000000024
sI2
F0.5700000000000002
sI3
F1.3400000000000003
sI4
F-0.65
sI5
F-1.04
sI6
F1.2
sI7
F0.65
sI8
F-0.9999999999999999
sI9
F-0.4600000000000001
sI10
F0.26
sI11
F1.2600000000000002
sI12
F-0.9400000000000001
sI13
F0.41000000000000003
sI14
F0.42000000000000004
sI15
F0.4
sI16
F0.5399999999999999
sI17
F0.6499999999999999
sI18
F1.8200000000000007
sI19
F1.8900000000000008
sI20
F1.0999999999999999
sI21
F-0.10999999999999999
sI22
F0.029999999999999943
sI23
F0.1299999999999999
sI24
F-0.7699999999999999
sI25
F-0.8600000000000001
sI26
F-1.4200000000000004
sI27
F-0.6600000000000001
sI28
F-0.87
sI29
F-1.4700000000000004
sI30
F-0.8799999999999999
sI31
F-1.0799999999999998
sI32
F0.3599999999999999
sI33
F-0.94
sI34
F-1.3100000000000003
sI35
F0.01999999999999999
sI36
F1.8000000000000007
sI37
F-0.45000000000000007
sI38
F0.6699999999999999
sI39
F-0.6
sI40
F-0.9499999999999998
sI41
F-0.22000000000000017
sI42
F-0.47
sI43
F-0.8599999999999999
sI44
F0.8899999999999999
ssg5
I0
ssI97
(dp289
g3
(dp290
I0
F0.92
sI1
F-1.03
sI2
F0.24000000000000007
sI3
F1.0399999999999998
sI4
F-0.08000000000000002
sI5
F-0.10000000000000003
sI6
F0.08000000000000002
sI7
F0.49
sI8
F-0.7800000000000001
sI9
F0.8200000000000001
sI10
F-0.9099999999999999
sI11
F0.31000000000000005
sI12
F-1.2300000000000002
sI13
F0.40000000000000013
sI14
F-0.44000000000000006
sI15
F-0.8200000000000001
sI16
F-0.5400000000000001
sI17
F0.48
sI18
F0.82
sI19
F0.67
sI20
F-0.13
sI21
F-0.6299999999999999
sI22
F0.4700000000000001
sI23
F-2.7800000000000016
sI24
F0.42000000000000004
sI25
F-0.4900000000000002
sI26
F-0.22000000000000017
sI27
F0.21000000000000005
sI28
F-0.6400000000000001
sI29
F-0.6799999999999999
sI30
F1.5
sI31
F0.5599999999999999
sI32
F1.2000000000000002
sI33
F0.8
sI34
F-1.2600000000000002
sI35
F-0.20000000000000004
sI36
F-0.6699999999999999
sI37
F-0.1500000000000001
sI38
F0.61
sI39
F1.2500000000000002
sI40
F1.1500000000000001
sI41
F1.8500000000000005
sI42
F0.13000000000000006
sI43
F-1.0599999999999998
sI44
F-0.32000000000000006
ssg5
I0
ssI98
(dp291
g3
(dp292
I0
F1.06
sI1
F0.8899999999999999
sI2
F0.19000000000000003
sI3
F1.29
sI4
F1.5500000000000003
sI5
F0.8500000000000001
sI6
F-1.01
sI7
F-1.6800000000000004
sI8
F0.5300000000000001
sI9
F-0.38
sI10
F-0.020000000000000046
sI11
F1.2300000000000002
sI12
F0.06
sI13
F1.15
sI14
F0.31000000000000005
sI15
F1.2300000000000002
sI16
F-1.1400000000000001
sI17
F2.100000000000001
sI18
F-0.4
sI19
F-0.89
sI20
F0.5
sI21
F1.4600000000000004
sI22
F-1.3000000000000003
sI23
F1.36
sI24
F0.23000000000000018
sI25
F-0.59
sI26
F-0.26
sI27
F-0.5300000000000001
sI28
F0.22000000000000006
sI29
F0.12000000000000005
sI30
F0.6400000000000001
sI31
F1.8700000000000008
sI32
F0.3699999999999999
sI33
F0.16
sI34
F0.62
sI35
F-1.13
sI36
F0.8799999999999999
sI37
F0.11000000000000004
sI38
F-0.7899999999999999
sI39
F-0.4
sI40
F0.5499999999999999
sI41
F-0.5
sI42
F-0.63
sI43
F-0.17
sI44
F-0.6
ssg5
I0
ssI99
(dp293
g3
(dp294
I0
F-0.7899999999999999
sI1
F0.32999999999999996
sI2
F-1.5800000000000005
sI3
F-0.7800000000000001
sI4
F-1.0499999999999998
sI5
F1.5100000000000005
sI6
F-0.32000000000000006
sI7
F-1.12
sI8
F0.28
sI9
F0.32999999999999996
sI10
F0.24000000000000002
sI11
F1.0799999999999998
sI12
F0.6799999999999998
sI13
F0.41000000000000014
sI14
F-1.1900000000000002
sI15
F-0.2600000000000001
sI16
F0.5
sI17
F-0.23
sI18
F-1.6900000000000004
sI19
F0.23000000000000012
sI20
F1.1400000000000001
sI21
F0.7800000000000001
sI22
F1.7200000000000004
sI23
F0.3700000000000001
sI24
F0.7899999999999999
sI25
F1.8300000000000005
sI26
F-0.36
sI27
F-0.32000000000000006
sI28
F0.49
sI29
F1.11
sI30
F0.1500000000000001
sI31
F-1.4800000000000002
sI32
F0.6799999999999999
sI33
F-0.13000000000000006
sI34
F0.19999999999999993
sI35
F-0.5599999999999999
sI36
F-0.5399999999999999
sI37
F-0.0500000000000001
sI38
F-1.0799999999999998
sI39
F0.030000000000000054
sI40
F-0.4600000000000001
sI41
F0.9500000000000001
sI42
F0.4600000000000001
sI43
F0.9800000000000001
sI44
F-1.9100000000000008
ssg5
I0
sssI2
(dp295
I0
(dp296
g3
(dp297
I0
F-0.98
sI1
F-1.1500000000000001
sI2
F-0.13
sI3
F0.38
sI4
F1.1400000000000001
sI5
F-1.3100000000000003
sI6
F1.26
sI7
F-0.75
sI8
F0.7400000000000001
sI9
F-1.0
sI10
F-1.0599999999999998
sI11
F-1.8600000000000008
sI12
F-0.49
sI13
F0.26
sI14
F1.4600000000000004
sI15
F-1.7500000000000007
sI16
F-0.55
sI17
F-0.25999999999999995
sI18
F0.6699999999999999
sI19
F0.3200000000000002
sI20
F2.310000000000001
sI21
F-0.6699999999999999
sI22
F0.6900000000000002
sI23
F-0.19999999999999998
sI24
F0.57
sI25
F0.48
sI26
F-0.8699999999999999
sI27
F-1.0699999999999998
sI28
F0.5900000000000001
sI29
F-0.48
sI30
F-0.18999999999999986
sI31
F-0.33999999999999997
sI32
F0.32000000000000006
sI33
F0.7799999999999999
sI34
F-0.8699999999999999
sI35
F-1.21
sI36
F-0.59
sI37
F0.91
sI38
F0.2500000000000001
sI39
F0.35
sI40
F-0.43000000000000005
sI41
F1.0499999999999998
sI42
F-0.7400000000000001
sI43
F-0.01999999999999999
sI44
F-0.6
sI45
F0.81
sI46
F-0.07999999999999985
sI47
F0.06000000000000011
sI48
F0.5700000000000001
sI49
F-0.7600000000000001
sI50
F-0.26
sI51
F0.7899999999999999
sI52
F-0.4600000000000002
sI53
F-1.1600000000000001
sI54
F0.8300000000000001
sI55
F1.4200000000000004
sI56
F-0.37
sI57
F-1.1500000000000001
sI58
F0.8099999999999999
sI59
F-0.7
sI60
F-0.39000000000000024
sI61
F0.55
sI62
F-0.43000000000000016
sI63
F-2.7755575615628914e-17
sI64
F0.28
sI65
F0.6599999999999999
sI66
F-0.5599999999999999
sI67
F0.23999999999999996
sI68
F-0.91
sI69
F1.01
sI70
F0.9900000000000001
sI71
F0.6100000000000001
sI72
F1.8600000000000008
sI73
F-0.3500000000000001
sI74
F-0.1500000000000001
sI75
F-0.33999999999999997
sI76
F-0.9899999999999999
sI77
F-0.12000000000000005
sI78
F0.8699999999999999
sI79
F-0.10999999999999999
sI80
F-0.7200000000000001
sI81
F2.320000000000001
sI82
F1.3000000000000003
sI83
F1.2900000000000003
sI84
F0.7600000000000001
sI85
F-0.049999999999999906
sI86
F1.2500000000000002
sI87
F0.47
sI88
F-0.15999999999999995
sI89
F0.6300000000000001
sI90
F-0.8900000000000001
sI91
F-0.0500000000000001
sI92
F0.56
sI93
F-0.06
sI94
F-0.050000000000000044
sI95
F0.010000000000000037
sI96
F-0.19999999999999998
sI97
F1.9300000000000008
sI98
F0.19000000000000025
sI99
F-1.1900000000000002
ssg5
I0
ssI1
(dp298
g3
(dp299
I0
F1.4100000000000004
sI1
F-0.73
sI2
F1.3100000000000003
sI3
F0.7900000000000001
sI4
F-0.72
sI5
F-0.07999999999999996
sI6
F-0.6799999999999999
sI7
F0.5499999999999999
sI8
F-2.7755575615628914e-17
sI9
F0.17
sI10
F-0.91
sI11
F0.26000000000000023
sI12
F1.7800000000000007
sI13
F-0.7100000000000001
sI14
F-0.31000000000000005
sI15
F-0.13999999999999996
sI16
F-0.21000000000000005
sI17
F-0.48
sI18
F-1.5700000000000005
sI19
F-0.45999999999999996
sI20
F1.27
sI21
F-0.4
sI22
F-0.4
sI23
F0.01999999999999988
sI24
F0.25999999999999995
sI25
F0.2500000000000001
sI26
F-0.86
sI27
F0.10000000000000014
sI28
F0.4
sI29
F0.009999999999999981
sI30
F-0.66
sI31
F-0.48
sI32
F-1.29
sI33
F-0.05000000000000021
sI34
F1.07
sI35
F-0.15999999999999995
sI36
F-0.5
sI37
F-1.01
sI38
F0.45999999999999996
sI39
F-1.1500000000000001
sI40
F1.4800000000000002
sI41
F-0.09999999999999998
sI42
F-0.29
sI43
F-0.17
sI44
F-0.31000000000000005
sI45
F-0.8699999999999999
sI46
F-0.47999999999999987
sI47
F0.37
sI48
F2.4600000000000013
sI49
F-0.27000000000000024
sI50
F-0.4600000000000001
sI51
F0.23000000000000007
sI52
F-1.3800000000000001
sI53
F-1.1800000000000002
sI54
F-0.2500000000000002
sI55
F-0.19000000000000003
sI56
F0.45999999999999996
sI57
F-0.24999999999999986
sI58
F-0.07000000000000012
sI59
F-0.5300000000000001
sI60
F-0.72
sI61
F-1.02
sI62
F0.19000000000000003
sI63
F0.9499999999999998
sI64
F1.2100000000000002
sI65
F0.19000000000000003
sI66
F0.17999999999999997
sI67
F-0.67
sI68
F0.09000000000000002
sI69
F-1.5300000000000005
sI70
F1.29
sI71
F-0.22000000000000006
sI72
F-0.91
sI73
F0.17000000000000023
sI74
F-0.7800000000000001
sI75
F0.30000000000000016
sI76
F1.2400000000000002
sI77
F-0.61
sI78
F0.6100000000000001
sI79
F-0.5599999999999999
sI80
F-1.5000000000000002
sI81
F0.22000000000000006
sI82
F-0.5000000000000001
sI83
F0.010000000000000037
sI84
F0.4600000000000001
sI85
F1.12
sI86
F0.7899999999999999
sI87
F1.7600000000000007
sI88
F-0.14
sI89
F0.9199999999999999
sI90
F-0.15000000000000022
sI91
F-0.21000000000000005
sI92
F-0.7799999999999999
sI93
F0.19000000000000003
sI94
F-0.43000000000000005
sI95
F-0.86
sI96
F-0.8999999999999999
sI97
F0.03999999999999995
sI98
F-0.8300000000000001
sI99
F0.28000000000000025
ssg5
I0
ssI2
(dp300
g3
(dp301
I0
F1.0699999999999998
sI1
F0.5199999999999999
sI2
F0.9099999999999999
sI3
F0.3600000000000001
sI4
F-1.5900000000000005
sI5
F-0.7
sI6
F-1.03
sI7
F-0.93
sI8
F0.27
sI9
F-0.14
sI10
F-1.4200000000000004
sI11
F0.030000000000000054
sI12
F-0.6200000000000001
sI13
F-1.2000000000000002
sI14
F-0.7700000000000001
sI15
F-2.610000000000001
sI16
F0.2600000000000001
sI17
F0.24000000000000007
sI18
F-0.21
sI19
F-0.050000000000000044
sI20
F-0.019999999999999768
sI21
F-0.9500000000000001
sI22
F-0.9599999999999999
sI23
F0.06000000000000005
sI24
F1.2300000000000002
sI25
F-0.0500000000000001
sI26
F-0.06999999999999995
sI27
F-0.2600000000000001
sI28
F0.09000000000000002
sI29
F-0.7
sI30
F-1.3000000000000003
sI31
F1.3800000000000001
sI32
F1.19
sI33
F0.6799999999999999
sI34
F-0.24000000000000019
sI35
F1.01
sI36
F0.07000000000000023
sI37
F-1.4800000000000004
sI38
F0.12000000000000005
sI39
F0.5100000000000001
sI40
F-0.6800000000000002
sI41
F0.9700000000000001
sI42
F1.3200000000000003
sI43
F-0.7499999999999999
sI44
F-0.37
sI45
F-2.2600000000000007
sI46
F0.13999999999999996
sI47
F1.0
sI48
F-0.18000000000000013
sI49
F0.74
sI50
F-0.48
sI51
F-2.130000000000001
sI52
F-0.6599999999999999
sI53
F-1.3500000000000003
sI54
F-0.25999999999999995
sI55
F-1.6900000000000006
sI56
F1.7100000000000006
sI57
F0.18999999999999992
sI58
F0.46999999999999986
sI59
F0.28000000000000014
sI60
F-0.2999999999999999
sI61
F-0.30000000000000016
sI62
F0.49
sI63
F1.8100000000000007
sI64
F0.24000000000000007
sI65
F1.3300000000000003
sI66
F1.08
sI67
F0.9600000000000001
sI68
F-0.21
sI69
F1.4600000000000004
sI70
F0.5100000000000001
sI71
F-0.6900000000000002
sI72
F0.6599999999999999
sI73
F0.43000000000000005
sI74
F1.5600000000000005
sI75
F1.7800000000000007
sI76
F-0.3700000000000002
sI77
F-0.8999999999999999
sI78
F0.1399999999999999
sI79
F-0.6600000000000001
sI80
F0.07
sI81
F-0.1399999999999999
sI82
F0.4700000000000001
sI83
F0.9
sI84
F0.5700000000000002
sI85
F0.5200000000000001
sI86
F-0.07
sI87
F0.3800000000000001
sI88
F-0.10999999999999988
sI89
F-1.3100000000000003
sI90
F-0.81
sI91
F1.1600000000000001
sI92
F-0.03
sI93
F-0.32999999999999985
sI94
F1.3000000000000003
sI95
F-0.08000000000000002
sI96
F1.5300000000000005
sI97
F-0.59
sI98
F0.7799999999999999
sI99
F0.03
ssg5
I0
ssI3
(dp302
g3
(dp303
I0
F0.37
sI1
F-0.8600000000000001
sI2
F0.21000000000000005
sI3
F-0.049999999999999795
sI4
F-0.91
sI5
F0.6600000000000001
sI6
F-0.39
sI7
F-1.2300000000000002
sI8
F0.9699999999999999
sI9
F0.9600000000000001
sI10
F-0.5599999999999999
sI11
F0.49
sI12
F0.28000000000000025
sI13
F0.47
sI14
F0.6
sI15
F0.06999999999999984
sI16
F-0.07
sI17
F0.14
sI18
F1.12
sI19
F1.4400000000000004
sI20
F0.22
sI21
F-1.1400000000000001
sI22
F-0.7299999999999999
sI23
F-1.11
sI24
F-0.020000000000000157
sI25
F1.5400000000000005
sI26
F0.69
sI27
F1.0899999999999999
sI28
F0.43000000000000005
sI29
F1.02
sI30
F-0.4900000000000001
sI31
F-0.8300000000000001
sI32
F-1.2600000000000002
sI33
F0.21000000000000005
sI34
F-0.42000000000000004
sI35
F-1.5400000000000003
sI36
F-0.6499999999999999
sI37
F0.44000000000000006
sI38
F-1.07
sI39
F0.29000000000000004
sI40
F0.36
sI41
F1.26
sI42
F1.5500000000000003
sI43
F1.7700000000000007
sI44
F-0.9500000000000001
sI45
F1.02
sI46
F-1.4400000000000004
sI47
F0.0500000000000001
sI48
F-0.27
sI49
F0.28999999999999987
sI50
F0.6100000000000001
sI51
F0.62
sI52
F-2.6400000000000015
sI53
F-0.7
sI54
F-1.7000000000000004
sI55
F0.08999999999999997
sI56
F1.1300000000000001
sI57
F-0.97
sI58
F0.8400000000000001
sI59
F1.2900000000000003
sI60
F0.71
sI61
F-0.8900000000000001
sI62
F-1.8800000000000006
sI63
F0.91
sI64
F-1.3800000000000003
sI65
F-1.3900000000000001
sI66
F-0.07
sI67
F-1.1500000000000001
sI68
F-0.1499999999999999
sI69
F1.1500000000000001
sI70
F0.63
sI71
F1.2400000000000002
sI72
F-1.19
sI73
F0.9499999999999998
sI74
F-0.33000000000000007
sI75
F-0.26000000000000023
sI76
F-0.14
sI77
F-0.35
sI78
F-0.9999999999999999
sI79
F-0.41999999999999993
sI80
F-0.20000000000000004
sI81
F-0.69
sI82
F1.6500000000000004
sI83
F0.44999999999999996
sI84
F-0.6400000000000001
sI85
F-0.18000000000000002
sI86
F-0.7200000000000001
sI87
F1.3700000000000003
sI88
F-0.14999999999999997
sI89
F-0.93
sI90
F-1.4300000000000004
sI91
F0.31000000000000016
sI92
F0.6400000000000001
sI93
F2.570000000000001
sI94
F-1.9200000000000008
sI95
F0.04000000000000006
sI96
F0.7000000000000001
sI97
F0.49
sI98
F-2.350000000000001
sI99
F-0.41000000000000014
ssg5
I0
ssI4
(dp304
g3
(dp305
I0
F-0.6799999999999999
sI1
F0.20000000000000004
sI2
F-0.5300000000000001
sI3
F0.35
sI4
F-0.3600000000000001
sI5
F1.8000000000000005
sI6
F-0.15000000000000022
sI7
F-0.27000000000000013
sI8
F0.41000000000000014
sI9
F1.7600000000000007
sI10
F1.3900000000000001
sI11
F0.35
sI12
F-0.9800000000000001
sI13
F-0.3400000000000001
sI14
F0.41000000000000014
sI15
F-1.12
sI16
F-0.019999999999999823
sI17
F-0.75
sI18
F0.049999999999999906
sI19
F1.36
sI20
F0.28000000000000025
sI21
F-0.7
sI22
F-0.3800000000000002
sI23
F-0.37
sI24
F0.49
sI25
F-0.98
sI26
F0.8700000000000001
sI27
F-0.57
sI28
F-0.45000000000000007
sI29
F0.9799999999999999
sI30
F-0.7699999999999999
sI31
F0.39
sI32
F-1.3000000000000003
sI33
F-0.39
sI34
F0.8999999999999999
sI35
F-1.5600000000000005
sI36
F-0.3600000000000002
sI37
F-2.0100000000000007
sI38
F-0.36
sI39
F-0.72
sI40
F-1.8400000000000007
sI41
F0.27
sI42
F0.24999999999999997
sI43
F2.530000000000001
sI44
F1.01
sI45
F0.20000000000000004
sI46
F1.9600000000000009
sI47
F-0.7200000000000001
sI48
F-1.13
sI49
F-2.510000000000001
sI50
F0.42000000000000004
sI51
F-1.16
sI52
F-1.4900000000000004
sI53
F0.01999999999999999
sI54
F0.47999999999999987
sI55
F0.3700000000000001
sI56
F0.39
sI57
F-0.010000000000000037
sI58
F-1.6700000000000004
sI59
F0.35
sI60
F-0.7499999999999999
sI61
F0.43000000000000016
sI62
F-1.3600000000000003
sI63
F-1.5700000000000005
sI64
F0.23000000000000007
sI65
F-1.7300000000000006
sI66
F0.42000000000000004
sI67
F1.05
sI68
F1.5400000000000005
sI69
F-1.12
sI70
F0.12000000000000016
sI71
F1.8300000000000007
sI72
F-0.68
sI73
F0.36
sI74
F-1.4900000000000004
sI75
F-0.06
sI76
F0.45999999999999996
sI77
F0.54
sI78
F-0.03
sI79
F-0.06999999999999995
sI80
F1.12
sI81
F-1.7500000000000007
sI82
F0.15000000000000022
sI83
F0.1499999999999998
sI84
F0.2500000000000002
sI85
F-0.54
sI86
F-1.5300000000000005
sI87
F-1.4600000000000004
sI88
F-1.8800000000000008
sI89
F1.4100000000000004
sI90
F2.0700000000000007
sI91
F0.43999999999999995
sI92
F0.8899999999999999
sI93
F0.17000000000000023
sI94
F0.48
sI95
F0.4800000000000002
sI96
F-0.050000000000000044
sI97
F0.9999999999999999
sI98
F-1.19
sI99
F-0.43000000000000016
ssg5
I0
ssI5
(dp306
g3
(dp307
I0
F0.5
sI1
F0.86
sI2
F-0.17000000000000012
sI3
F-1.3400000000000003
sI4
F-0.57
sI5
F1.0799999999999998
sI6
F0.25000000000000006
sI7
F0.6
sI8
F1.3100000000000003
sI9
F-1.28
sI10
F-0.28
sI11
F0.26
sI12
F1.2100000000000002
sI13
F-1.16
sI14
F0.58
sI15
F0.26
sI16
F-1.5700000000000005
sI17
F0.55
sI18
F0.8999999999999999
sI19
F-0.06999999999999995
sI20
F-0.18999999999999992
sI21
F-0.23999999999999996
sI22
F0.20000000000000004
sI23
F-0.83
sI24
F-1.6400000000000006
sI25
F1.16
sI26
F-0.9199999999999999
sI27
F0.44000000000000017
sI28
F-1.7200000000000006
sI29
F-0.5599999999999999
sI30
F-0.44000000000000017
sI31
F0.8600000000000001
sI32
F-0.27000000000000013
sI33
F0.08000000000000002
sI34
F-1.0999999999999999
sI35
F-1.0
sI36
F-0.29999999999999993
sI37
F0.6599999999999999
sI38
F-0.9499999999999998
sI39
F-0.08000000000000002
sI40
F0.36
sI41
F0.93
sI42
F-0.5499999999999999
sI43
F1.6200000000000006
sI44
F-0.23999999999999996
sI45
F-0.24999999999999997
sI46
F0.31000000000000005
sI47
F-0.9899999999999999
sI48
F0.16
sI49
F0.29999999999999993
sI50
F-0.69
sI51
F0.6400000000000001
sI52
F0.6200000000000001
sI53
F0.5
sI54
F1.08
sI55
F0.4099999999999999
sI56
F-0.050000000000000044
sI57
F-0.08000000000000002
sI58
F-0.41000000000000014
sI59
F0.08999999999999997
sI60
F0.29000000000000004
sI61
F-0.22
sI62
F0.6599999999999999
sI63
F-0.8600000000000001
sI64
F0.27
sI65
F1.5500000000000005
sI66
F-0.61
sI67
F0.9999999999999998
sI68
F0.5300000000000001
sI69
F-0.6500000000000001
sI70
F-0.38
sI71
F-0.7799999999999999
sI72
F-0.18000000000000002
sI73
F-0.16
sI74
F1.3800000000000001
sI75
F-0.7499999999999999
sI76
F-0.29000000000000004
sI77
F-0.010000000000000148
sI78
F1.7400000000000007
sI79
F0.14
sI80
F-0.3800000000000002
sI81
F-1.9800000000000009
sI82
F1.3200000000000003
sI83
F1.06
sI84
F-0.33000000000000007
sI85
F0.11000000000000004
sI86
F0.9900000000000001
sI87
F0.58
sI88
F0.21
sI89
F-2.0900000000000007
sI90
F-0.9899999999999999
sI91
F-0.5200000000000001
sI92
F-0.36
sI93
F2.100000000000001
sI94
F-0.19000000000000003
sI95
F-0.9400000000000001
sI96
F-0.49
sI97
F-1.1300000000000001
sI98
F-1.05
sI99
F0.21
ssg5
I0
ssI6
(dp308
g3
(dp309
I0
F0.13000000000000006
sI1
F-0.7699999999999999
sI2
F-0.43000000000000016
sI3
F-0.22
sI4
F1.0799999999999998
sI5
F-0.04000000000000001
sI6
F1.7700000000000005
sI7
F-0.009999999999999981
sI8
F-0.7200000000000001
sI9
F1.0599999999999998
sI10
F-0.5700000000000002
sI11
F-0.85
sI12
F-0.07000000000000023
sI13
F0.61
sI14
F-0.1100000000000001
sI15
F0.8500000000000001
sI16
F-0.47
sI17
F1.01
sI18
F0.3500000000000002
sI19
F0.6799999999999999
sI20
F1.02
sI21
F0.7500000000000001
sI22
F-1.33
sI23
F-0.7100000000000001
sI24
F-1.6600000000000004
sI25
F0.27
sI26
F0.9500000000000001
sI27
F-1.3400000000000003
sI28
F-0.39
sI29
F-0.51
sI30
F0.85
sI31
F0.44999999999999996
sI32
F1.03
sI33
F-1.05
sI34
F1.3700000000000003
sI35
F-1.0999999999999999
sI36
F0.5
sI37
F-0.24999999999999997
sI38
F0.19000000000000003
sI39
F0.53
sI40
F-1.2200000000000002
sI41
F0.66
sI42
F1.2600000000000002
sI43
F-2.190000000000001
sI44
F-0.6300000000000001
sI45
F-0.029999999999999888
sI46
F0.09999999999999998
sI47
F0.17999999999999985
sI48
F-0.9899999999999999
sI49
F-0.8500000000000001
sI50
F0.85
sI51
F0.54
sI52
F-0.37
sI53
F-1.8400000000000007
sI54
F0.1499999999999998
sI55
F0.5100000000000001
sI56
F1.1300000000000001
sI57
F-0.020000000000000157
sI58
F-0.5100000000000001
sI59
F0.8899999999999999
sI60
F1.04
sI61
F1.1600000000000001
sI62
F-0.22000000000000017
sI63
F-0.31000000000000005
sI64
F-1.07
sI65
F-0.93
sI66
F0.86
sI67
F-0.52
sI68
F0.8600000000000001
sI69
F0.9400000000000001
sI70
F0.4900000000000002
sI71
F-0.8699999999999999
sI72
F0.27999999999999997
sI73
F-1.18
sI74
F0.19000000000000025
sI75
F-0.87
sI76
F-0.69
sI77
F1.03
sI78
F1.2400000000000002
sI79
F-0.57
sI80
F-0.35
sI81
F-0.38
sI82
F-0.12000000000000005
sI83
F-2.340000000000001
sI84
F0.7
sI85
F-0.92
sI86
F-0.49
sI87
F0.6200000000000001
sI88
F-0.8799999999999999
sI89
F0.6100000000000001
sI90
F0.2500000000000001
sI91
F1.0
sI92
F-1.3300000000000003
sI93
F-0.9899999999999999
sI94
F0.5000000000000001
sI95
F-1.3700000000000003
sI96
F-0.17000000000000023
sI97
F-1.4200000000000004
sI98
F0.48
sI99
F-1.5800000000000003
ssg5
I0
ssI7
(dp310
g3
(dp311
I0
F-0.3500000000000001
sI1
F1.05
sI2
F-0.24999999999999997
sI3
F0.0399999999999999
sI4
F0.12
sI5
F-0.6599999999999999
sI6
F-0.92
sI7
F2.060000000000001
sI8
F-1.7900000000000007
sI9
F-0.47
sI10
F0.18000000000000013
sI11
F-0.18000000000000002
sI12
F-0.44000000000000017
sI13
F-1.1800000000000002
sI14
F0.6
sI15
F0.5199999999999999
sI16
F-0.6200000000000001
sI17
F-0.9299999999999999
sI18
F-1.07
sI19
F0.47
sI20
F-0.30000000000000004
sI21
F-0.2599999999999999
sI22
F0.04000000000000001
sI23
F1.36
sI24
F-0.8400000000000001
sI25
F-0.01999999999999999
sI26
F0.21000000000000005
sI27
F0.10000000000000003
sI28
F-0.44000000000000006
sI29
F-1.2
sI30
F0.8900000000000001
sI31
F-0.3799999999999999
sI32
F0.17
sI33
F-0.58
sI34
F0.8800000000000001
sI35
F-0.74
sI36
F-0.26999999999999996
sI37
F-0.6599999999999999
sI38
F-0.8500000000000001
sI39
F-1.6200000000000006
sI40
F0.49
sI41
F-1.15
sI42
F0.55
sI43
F1.3000000000000003
sI44
F-0.8899999999999999
sI45
F-0.9700000000000001
sI46
F-0.72
sI47
F0.13000000000000017
sI48
F0.8500000000000001
sI49
F0.10000000000000003
sI50
F0.45000000000000007
sI51
F-1.5200000000000005
sI52
F-0.63
sI53
F-0.6600000000000001
sI54
F-0.72
sI55
F0.37
sI56
F-0.8299999999999998
sI57
F0.31
sI58
F1.7200000000000006
sI59
F-1.5000000000000002
sI60
F0.24000000000000019
sI61
F-0.30000000000000004
sI62
F0.9599999999999999
sI63
F0.5200000000000001
sI64
F0.43000000000000016
sI65
F0.12000000000000005
sI66
F-1.2100000000000002
sI67
F1.11
sI68
F0.53
sI69
F-0.27999999999999997
sI70
F0.7
sI71
F0.8499999999999999
sI72
F0.31000000000000005
sI73
F0.8300000000000001
sI74
F0.14000000000000007
sI75
F0.61
sI76
F-0.5599999999999999
sI77
F-0.6299999999999998
sI78
F0.7899999999999999
sI79
F-0.8899999999999999
sI80
F-0.2500000000000002
sI81
F-0.54
sI82
F0.6599999999999999
sI83
F0.7299999999999999
sI84
F0.010000000000000037
sI85
F1.4000000000000001
sI86
F-0.8899999999999999
sI87
F0.42000000000000004
sI88
F-0.22
sI89
F-0.05000000000000021
sI90
F0.7300000000000001
sI91
F0.7800000000000001
sI92
F-1.5500000000000005
sI93
F1.3800000000000003
sI94
F-2.450000000000001
sI95
F0.7599999999999999
sI96
F-0.020000000000000157
sI97
F-0.8599999999999999
sI98
F-0.11000000000000004
sI99
F0.37
ssg5
I0
ssI8
(dp312
g3
(dp313
I0
F0.35
sI1
F-0.7499999999999999
sI2
F0.52
sI3
F-1.11
sI4
F-0.82
sI5
F-0.71
sI6
F0.6399999999999999
sI7
F0.33000000000000007
sI8
F-0.31000000000000016
sI9
F-0.3600000000000002
sI10
F-1.01
sI11
F2.0900000000000007
sI12
F0.22000000000000006
sI13
F-0.31000000000000005
sI14
F-0.8699999999999999
sI15
F1.25
sI16
F-0.6700000000000002
sI17
F-0.01999999999999999
sI18
F0.41999999999999993
sI19
F-0.22
sI20
F1.04
sI21
F-0.24999999999999997
sI22
F-0.38
sI23
F-1.7000000000000006
sI24
F0.5200000000000001
sI25
F-0.15000000000000005
sI26
F-2.190000000000001
sI27
F-0.2500000000000001
sI28
F0.65
sI29
F0.3700000000000002
sI30
F0.5800000000000002
sI31
F-1.3800000000000003
sI32
F0.5
sI33
F0.8999999999999999
sI34
F0.32000000000000006
sI35
F0.61
sI36
F-0.49
sI37
F-0.8700000000000001
sI38
F-1.7600000000000005
sI39
F0.5499999999999999
sI40
F0.010000000000000148
sI41
F-0.10000000000000009
sI42
F-0.17000000000000012
sI43
F1.03
sI44
F-0.3800000000000002
sI45
F0.22000000000000017
sI46
F1.6100000000000005
sI47
F1.9200000000000006
sI48
F0.75
sI49
F-0.16000000000000011
sI50
F0.4500000000000002
sI51
F-0.7300000000000001
sI52
F0.8300000000000001
sI53
F0.7600000000000001
sI54
F0.6699999999999999
sI55
F0.16
sI56
F0.49
sI57
F-2.7755575615628914e-17
sI58
F0.34
sI59
F-0.3500000000000001
sI60
F-0.44999999999999996
sI61
F1.06
sI62
F-1.06
sI63
F-0.94
sI64
F-0.6499999999999999
sI65
F-0.20999999999999994
sI66
F-1.5800000000000003
sI67
F2.430000000000001
sI68
F-0.020000000000000046
sI69
F-0.07
sI70
F0.13999999999999996
sI71
F0.38
sI72
F-0.9499999999999998
sI73
F0.8300000000000001
sI74
F1.09
sI75
F-0.42000000000000015
sI76
F-1.9300000000000006
sI77
F-1.5500000000000005
sI78
F-2.000000000000001
sI79
F1.4200000000000004
sI80
F-0.8999999999999999
sI81
F-0.18999999999999997
sI82
F-0.6
sI83
F-0.5
sI84
F-0.19999999999999987
sI85
F1.0999999999999999
sI86
F0.30000000000000016
sI87
F1.7800000000000005
sI88
F0.43999999999999995
sI89
F-0.7499999999999999
sI90
F0.6700000000000002
sI91
F0.21000000000000016
sI92
F-1.5200000000000005
sI93
F-1.04
sI94
F-0.5200000000000001
sI95
F0.85
sI96
F-1.2
sI97
F1.5400000000000005
sI98
F0.22000000000000006
sI99
F0.4500000000000002
ssg5
I0
ssI9
(dp314
g3
(dp315
I0
F-0.19000000000000014
sI1
F-0.30000000000000004
sI2
F-1.1400000000000001
sI3
F0.20000000000000004
sI4
F-0.04999999999999996
sI5
F-0.4900000000000002
sI6
F0.9
sI7
F-0.73
sI8
F0.050000000000000044
sI9
F-0.28
sI10
F0.63
sI11
F1.0999999999999999
sI12
F0.5000000000000001
sI13
F1.6500000000000004
sI14
F-0.29000000000000004
sI15
F-0.7099999999999999
sI16
F0.2500000000000001
sI17
F1.4600000000000004
sI18
F-1.5100000000000005
sI19
F0.43000000000000005
sI20
F-0.31000000000000016
sI21
F0.6299999999999999
sI22
F1.2600000000000002
sI23
F1.0599999999999998
sI24
F0.26
sI25
F-1.1700000000000002
sI26
F0.8999999999999999
sI27
F0.9999999999999999
sI28
F0.44000000000000017
sI29
F0.76
sI30
F-0.17000000000000023
sI31
F-0.5600000000000002
sI32
F-0.37
sI33
F1.4700000000000004
sI34
F0.7699999999999999
sI35
F-0.31000000000000005
sI36
F0.66
sI37
F0.5
sI38
F-0.69
sI39
F-1.4500000000000004
sI40
F1.3500000000000003
sI41
F-0.42000000000000004
sI42
F0.92
sI43
F-0.69
sI44
F-0.08999999999999997
sI45
F-1.27
sI46
F-0.3400000000000001
sI47
F-0.51
sI48
F0.9899999999999999
sI49
F0.22000000000000006
sI50
F1.9600000000000009
sI51
F0.39
sI52
F-0.12000000000000005
sI53
F0.8699999999999999
sI54
F0.18999999999999997
sI55
F0.04999999999999996
sI56
F0.10999999999999999
sI57
F0.6799999999999999
sI58
F-0.5
sI59
F-0.29000000000000015
sI60
F0.9700000000000001
sI61
F0.6799999999999999
sI62
F0.12000000000000005
sI63
F0.18999999999999997
sI64
F-0.39000000000000024
sI65
F-0.31000000000000005
sI66
F-1.6100000000000005
sI67
F0.6799999999999999
sI68
F-1.8100000000000005
sI69
F1.6700000000000006
sI70
F-0.11000000000000004
sI71
F0.9900000000000001
sI72
F-0.83
sI73
F-1.8000000000000007
sI74
F-1.1
sI75
F1.7000000000000006
sI76
F-0.9800000000000001
sI77
F0.009999999999999981
sI78
F1.8800000000000008
sI79
F0.21
sI80
F0.010000000000000148
sI81
F1.4700000000000004
sI82
F-1.26
sI83
F-0.4
sI84
F-1.2700000000000002
sI85
F0.30000000000000016
sI86
F-0.11999999999999988
sI87
F-1.11
sI88
F-0.20000000000000004
sI89
F1.4200000000000004
sI90
F0.39000000000000024
sI91
F1.29
sI92
F1.2900000000000003
sI93
F0.7
sI94
F0.27000000000000013
sI95
F-0.36
sI96
F1.7600000000000007
sI97
F0.4700000000000001
sI98
F-0.01999999999999988
sI99
F-0.0500000000000001
ssg5
I0
ssI10
(dp316
g3
(dp317
I0
F0.18000000000000002
sI1
F2.370000000000001
sI2
F1.5200000000000005
sI3
F-0.22000000000000017
sI4
F0.3300000000000002
sI5
F-0.9899999999999999
sI6
F0.5300000000000001
sI7
F-0.24000000000000007
sI8
F-0.9500000000000001
sI9
F-1.4900000000000004
sI10
F-0.16
sI11
F-0.91
sI12
F0.030000000000000054
sI13
F0.19000000000000003
sI14
F-0.49
sI15
F-1.05
sI16
F-0.5100000000000001
sI17
F1.3300000000000003
sI18
F0.6699999999999999
sI19
F-0.30000000000000004
sI20
F1.4500000000000004
sI21
F-0.19999999999999998
sI22
F0.7099999999999999
sI23
F-0.5299999999999999
sI24
F1.1600000000000001
sI25
F-0.93
sI26
F-0.4
sI27
F1.1700000000000002
sI28
F-0.9599999999999999
sI29
F0.48
sI30
F-0.5899999999999999
sI31
F-0.4
sI32
F0.7799999999999999
sI33
F-0.4500000000000002
sI34
F-1.37
sI35
F-0.3700000000000001
sI36
F0.01999999999999999
sI37
F-0.17999999999999997
sI38
F0.61
sI39
F0.53
sI40
F0.8200000000000001
sI41
F-0.45000000000000007
sI42
F-0.32000000000000006
sI43
F-0.35
sI44
F-1.11
sI45
F1.3000000000000003
sI46
F-0.2500000000000001
sI47
F0.81
sI48
F-0.30000000000000004
sI49
F-0.6400000000000001
sI50
F0.5600000000000002
sI51
F0.09000000000000002
sI52
F-0.7999999999999999
sI53
F-1.18
sI54
F0.7000000000000001
sI55
F0.52
sI56
F-0.12999999999999995
sI57
F-0.15000000000000005
sI58
F1.7100000000000006
sI59
F1.3900000000000003
sI60
F-0.019999999999999934
sI61
F-0.6699999999999999
sI62
F0.5499999999999999
sI63
F0.29999999999999993
sI64
F1.1300000000000001
sI65
F0.9
sI66
F-0.19000000000000003
sI67
F-1.06
sI68
F0.7200000000000001
sI69
F-0.93
sI70
F-2.490000000000001
sI71
F1.3100000000000003
sI72
F0.32000000000000006
sI73
F-0.9799999999999999
sI74
F-0.9700000000000001
sI75
F0.4500000000000002
sI76
F-0.7300000000000001
sI77
F-0.37
sI78
F1.2600000000000002
sI79
F-0.5200000000000001
sI80
F-1.08
sI81
F0.18000000000000002
sI82
F0.050000000000000044
sI83
F-0.6300000000000001
sI84
F-0.3400000000000001
sI85
F2.6800000000000015
sI86
F1.4600000000000004
sI87
F-1.7200000000000006
sI88
F-0.54
sI89
F0.18000000000000002
sI90
F0.9099999999999998
sI91
F-1.29
sI92
F-0.6000000000000001
sI93
F0.72
sI94
F0.38
sI95
F0.07000000000000012
sI96
F-0.49
sI97
F0.6400000000000001
sI98
F-1.4500000000000004
sI99
F0.28
ssg5
I0
ssI11
(dp318
g3
(dp319
I0
F-0.17999999999999997
sI1
F0.26
sI2
F-0.81
sI3
F0.1500000000000001
sI4
F0.020000000000000046
sI5
F-0.14999999999999997
sI6
F0.52
sI7
F-0.7999999999999999
sI8
F-1.19
sI9
F-0.04000000000000006
sI10
F1.1500000000000001
sI11
F0.24000000000000007
sI12
F0.6700000000000002
sI13
F-0.29000000000000004
sI14
F-0.7800000000000001
sI15
F0.63
sI16
F-0.049999999999999795
sI17
F0.38
sI18
F0.53
sI19
F-1.11
sI20
F0.6499999999999999
sI21
F0.56
sI22
F0.41000000000000003
sI23
F-0.8800000000000001
sI24
F1.2900000000000003
sI25
F0.10999999999999999
sI26
F-0.61
sI27
F-0.2500000000000001
sI28
F0.44000000000000017
sI29
F-1.7400000000000007
sI30
F0.6299999999999998
sI31
F-0.69
sI32
F0.31000000000000005
sI33
F-1.2200000000000002
sI34
F-1.3700000000000003
sI35
F-0.8
sI36
F1.3700000000000003
sI37
F0.6100000000000001
sI38
F-0.5499999999999999
sI39
F-0.36
sI40
F-0.8300000000000001
sI41
F0.04000000000000001
sI42
F0.14000000000000007
sI43
F0.82
sI44
F0.12
sI45
F0.17
sI46
F0.64
sI47
F0.6699999999999999
sI48
F0.66
sI49
F0.24000000000000007
sI50
F-0.21000000000000005
sI51
F0.9199999999999998
sI52
F-0.58
sI53
F0.18000000000000002
sI54
F-0.19000000000000014
sI55
F-0.13000000000000017
sI56
F1.14
sI57
F-1.7300000000000006
sI58
F-0.06000000000000011
sI59
F0.6200000000000001
sI60
F-0.27000000000000013
sI61
F-1.8100000000000007
sI62
F-0.9700000000000001
sI63
F-1.0799999999999998
sI64
F-1.1400000000000001
sI65
F-0.7300000000000001
sI66
F1.1
sI67
F-0.5800000000000002
sI68
F-0.7100000000000001
sI69
F0.6000000000000001
sI70
F-0.01999999999999988
sI71
F0.17
sI72
F0.6499999999999999
sI73
F0.59
sI74
F0.6100000000000001
sI75
F1.2700000000000002
sI76
F-0.7400000000000001
sI77
F-0.4
sI78
F-0.8300000000000001
sI79
F0.8300000000000001
sI80
F-0.72
sI81
F0.6799999999999999
sI82
F-1.5800000000000005
sI83
F-0.15000000000000005
sI84
F-0.18000000000000002
sI85
F1.02
sI86
F-1.0899999999999999
sI87
F0.7699999999999999
sI88
F0.09000000000000014
sI89
F-0.009999999999999759
sI90
F-0.5
sI91
F-1.0499999999999998
sI92
F-0.59
sI93
F0.35
sI94
F-1.6400000000000003
sI95
F-0.5900000000000002
sI96
F0.6800000000000002
sI97
F-0.8899999999999999
sI98
F1.2200000000000002
sI99
F0.64
ssg5
I0
ssI12
(dp320
g3
(dp321
I0
F-1.2200000000000002
sI1
F0.049999999999999906
sI2
F0.43999999999999995
sI3
F-0.26
sI4
F0.41000000000000014
sI5
F-0.7499999999999999
sI6
F-0.31000000000000005
sI7
F1.6400000000000006
sI8
F-0.69
sI9
F0.7999999999999999
sI10
F-1.07
sI11
F1.04
sI12
F-1.15
sI13
F1.18
sI14
F0.7000000000000001
sI15
F1.11
sI16
F-2.0900000000000007
sI17
F1.9800000000000009
sI18
F1.3000000000000003
sI19
F-0.38
sI20
F0.19000000000000003
sI21
F-0.5299999999999999
sI22
F-1.16
sI23
F0.4299999999999998
sI24
F1.5600000000000003
sI25
F0.5599999999999999
sI26
F0.5100000000000001
sI27
F1.1500000000000001
sI28
F1.05
sI29
F-0.6300000000000001
sI30
F0.029999999999999888
sI31
F-0.7200000000000001
sI32
F-0.69
sI33
F0.39
sI34
F2.280000000000001
sI35
F1.7100000000000006
sI36
F0.9400000000000001
sI37
F-1.6400000000000006
sI38
F0.6599999999999999
sI39
F0.09999999999999987
sI40
F-0.08999999999999986
sI41
F1.9700000000000006
sI42
F-1.4400000000000004
sI43
F1.1800000000000002
sI44
F-0.4
sI45
F-0.38
sI46
F-0.6000000000000001
sI47
F0.37
sI48
F-1.5800000000000003
sI49
F1.1700000000000002
sI50
F-0.5
sI51
F0.37
sI52
F0.8500000000000001
sI53
F-1.7500000000000007
sI54
F0.63
sI55
F-2.7755575615628914e-17
sI56
F-0.01999999999999999
sI57
F-0.20000000000000004
sI58
F-0.030000000000000054
sI59
F0.6699999999999999
sI60
F0.30000000000000004
sI61
F0.69
sI62
F0.16
sI63
F0.66
sI64
F-0.03
sI65
F-1.0899999999999999
sI66
F0.009999999999999759
sI67
F-0.050000000000000044
sI68
F-1.37
sI69
F-0.7800000000000001
sI70
F-0.64
sI71
F0.7000000000000001
sI72
F-1.9100000000000008
sI73
F0.51
sI74
F0.24000000000000002
sI75
F-0.9999999999999999
sI76
F1.6200000000000006
sI77
F-0.8799999999999999
sI78
F0.38
sI79
F1.3200000000000003
sI80
F1.4800000000000002
sI81
F1.9000000000000008
sI82
F-1.9100000000000008
sI83
F0.7000000000000001
sI84
F-0.6200000000000001
sI85
F1.19
sI86
F0.92
sI87
F-0.9799999999999999
sI88
F0.6300000000000001
sI89
F0.19000000000000003
sI90
F-2.7755575615628914e-17
sI91
F1.37
sI92
F0.8400000000000001
sI93
F-0.20999999999999988
sI94
F0.39000000000000024
sI95
F-1.5000000000000004
sI96
F-0.61
sI97
F0.14000000000000007
sI98
F1.6300000000000003
sI99
F0.23
ssg5
I0
ssI13
(dp322
g3
(dp323
I0
F0.01999999999999988
sI1
F-0.72
sI2
F-0.78
sI3
F0.8999999999999999
sI4
F0.31000000000000005
sI5
F-0.8500000000000001
sI6
F-1.0699999999999998
sI7
F1.2300000000000002
sI8
F-1.7600000000000007
sI9
F0.40000000000000013
sI10
F-0.27000000000000013
sI11
F1.2100000000000002
sI12
F0.6700000000000002
sI13
F-0.23
sI14
F-0.5100000000000001
sI15
F1.02
sI16
F-0.3400000000000001
sI17
F0.31000000000000005
sI18
F0.6500000000000001
sI19
F-0.28
sI20
F0.7899999999999999
sI21
F1.4900000000000002
sI22
F1.8700000000000008
sI23
F-0.68
sI24
F-0.8200000000000001
sI25
F-0.43999999999999995
sI26
F0.26
sI27
F-1.5100000000000005
sI28
F0.32000000000000006
sI29
F-0.8900000000000001
sI30
F0.66
sI31
F-0.6600000000000001
sI32
F0.8500000000000001
sI33
F-0.5700000000000002
sI34
F1.4000000000000001
sI35
F-0.19999999999999998
sI36
F-1.4300000000000004
sI37
F0.7399999999999999
sI38
F-0.72
sI39
F0.74
sI40
F0.8099999999999999
sI41
F-0.33999999999999997
sI42
F-2.490000000000001
sI43
F0.7399999999999999
sI44
F0.93
sI45
F0.4800000000000001
sI46
F-0.08000000000000013
sI47
F-0.8300000000000001
sI48
F1.04
sI49
F1.2100000000000002
sI50
F-0.42999999999999994
sI51
F0.30000000000000004
sI52
F-1.25
sI53
F0.13000000000000006
sI54
F-0.4600000000000002
sI55
F-0.6399999999999999
sI56
F-0.8
sI57
F-0.3600000000000001
sI58
F-0.2500000000000002
sI59
F0.18000000000000013
sI60
F1.2700000000000002
sI61
F0.9199999999999999
sI62
F-0.41000000000000003
sI63
F1.6000000000000005
sI64
F0.04999999999999996
sI65
F0.69
sI66
F-0.12
sI67
F0.51
sI68
F1.1400000000000001
sI69
F-1.6300000000000003
sI70
F-0.18000000000000002
sI71
F0.09999999999999987
sI72
F-0.2799999999999999
sI73
F0.7999999999999999
sI74
F0.62
sI75
F0.4700000000000002
sI76
F0.19999999999999987
sI77
F-1.04
sI78
F-0.27000000000000013
sI79
F0.23
sI80
F-1.3700000000000003
sI81
F-0.45000000000000007
sI82
F-0.010000000000000148
sI83
F0.85
sI84
F0.9799999999999999
sI85
F-0.14000000000000007
sI86
F1.3877787807814457e-16
sI87
F-0.77
sI88
F-1.4700000000000004
sI89
F-1.1400000000000001
sI90
F0.86
sI91
F-1.02
sI92
F-1.5300000000000005
sI93
F-0.2600000000000001
sI94
F0.47
sI95
F0.20000000000000015
sI96
F-0.040000000000000174
sI97
F1.7000000000000004
sI98
F-0.30000000000000004
sI99
F0.08999999999999991
ssg5
I0
sss.