(dp0
I0
(dp1
I0
(dp2
S'links'
p3
(dp4
sS'value'
p5
I0
ssI1
(dp6
g3
(dp7
sg5
I0
ssI2
(dp8
g3
(dp9
sg5
I0
ssI3
(dp10
g3
(dp11
sg5
I0
ssI4
(dp12
g3
(dp13
sg5
I0
ssI5
(dp14
g3
(dp15
sg5
I0
ssI6
(dp16
g3
(dp17
sg5
I0
ssI7
(dp18
g3
(dp19
sg5
I0
ssI8
(dp20
g3
(dp21
sg5
I0
ssI9
(dp22
g3
(dp23
sg5
I0
ssI10
(dp24
g3
(dp25
sg5
I0
ssI11
(dp26
g3
(dp27
sg5
I0
ssI12
(dp28
g3
(dp29
sg5
I0
ssI13
(dp30
g3
(dp31
sg5
I0
ssI14
(dp32
g3
(dp33
sg5
I0
ssI15
(dp34
g3
(dp35
sg5
I0
ssI16
(dp36
g3
(dp37
sg5
I0
ssI17
(dp38
g3
(dp39
sg5
I0
ssI18
(dp40
g3
(dp41
sg5
I0
ssI19
(dp42
g3
(dp43
sg5
I0
ssI20
(dp44
g3
(dp45
sg5
I0
ssI21
(dp46
g3
(dp47
sg5
I0
ssI22
(dp48
g3
(dp49
sg5
I0
ssI23
(dp50
g3
(dp51
sg5
I0
ssI24
(dp52
g3
(dp53
sg5
I0
ssI25
(dp54
g3
(dp55
sg5
I0
ssI26
(dp56
g3
(dp57
sg5
I0
ssI27
(dp58
g3
(dp59
sg5
I0
ssI28
(dp60
g3
(dp61
sg5
I0
ssI29
(dp62
g3
(dp63
sg5
I0
ssI30
(dp64
g3
(dp65
sg5
I0
ssI31
(dp66
g3
(dp67
sg5
I0
ssI32
(dp68
g3
(dp69
sg5
I0
ssI33
(dp70
g3
(dp71
sg5
I0
ssI34
(dp72
g3
(dp73
sg5
I0
ssI35
(dp74
g3
(dp75
sg5
I0
ssI36
(dp76
g3
(dp77
sg5
I0
ssI37
(dp78
g3
(dp79
sg5
I0
ssI38
(dp80
g3
(dp81
sg5
I0
ssI39
(dp82
g3
(dp83
sg5
I0
ssI40
(dp84
g3
(dp85
sg5
I0
ssI41
(dp86
g3
(dp87
sg5
I0
ssI42
(dp88
g3
(dp89
sg5
I0
ssI43
(dp90
g3
(dp91
sg5
I0
ssI44
(dp92
g3
(dp93
sg5
I0
sssI1
(dp94
I0
(dp95
g3
(dp96
I0
F-0.46
sI1
F-0.52
sI2
F0.2
sI3
F0.51
sI4
F-0.88
sI5
F-0.42
sI6
F0.24
sI7
F-0.6900000000000001
sI8
F0.66
sI9
F-0.26
sI10
F0.28
sI11
F-0.66
sI12
F-0.9400000000000001
sI13
F-0.96
sI14
F0.81
sI15
F0.63
sI16
F-0.24
sI17
F0.54
sI18
F0.98
sI19
F-0.18
sI20
F-0.05
sI21
F-0.54
sI22
F0.18
sI23
F0.6900000000000001
sI24
F0.93
sI25
F-0.6900000000000001
sI26
F-0.26
sI27
F0.62
sI28
F0.58
sI29
F-0.01
sI30
F0.11
sI31
F-0.9500000000000001
sI32
F0.67
sI33
F0.77
sI34
F0.3
sI35
F-0.72
sI36
F-0.84
sI37
F-0.44
sI38
F-0.7000000000000001
sI39
F0.97
sI40
F-0.33
sI41
F0.93
sI42
F0.58
sI43
F0.0
sI44
F0.14
ssg5
I0
ssI1
(dp97
g3
(dp98
I0
F0.76
sI1
F-0.5700000000000001
sI2
F-0.2
sI3
F-0.14
sI4
F-0.72
sI5
F-0.62
sI6
F0.22
sI7
F0.52
sI8
F0.79
sI9
F0.52
sI10
F0.43
sI11
F0.19
sI12
F-0.45
sI13
F-0.72
sI14
F0.76
sI15
F0.49
sI16
F0.8
sI17
F-0.22
sI18
F-0.65
sI19
F-0.43
sI20
F-0.93
sI21
F0.81
sI22
F-0.28
sI23
F-0.14
sI24
F0.81
sI25
F-0.42
sI26
F-0.3
sI27
F0.48
sI28
F0.18
sI29
F-0.65
sI30
F-0.5
sI31
F-0.75
sI32
F0.59
sI33
F-0.42
sI34
F-0.05
sI35
F0.48
sI36
F-0.76
sI37
F0.9500000000000001
sI38
F-0.73
sI39
F0.03
sI40
F-0.62
sI41
F0.7000000000000001
sI42
F0.21
sI43
F-0.19
sI44
F0.75
ssg5
I0
ssI2
(dp99
g3
(dp100
I0
F0.17
sI1
F-0.25
sI2
F0.52
sI3
F-0.25
sI4
F-0.07
sI5
F-0.77
sI6
F-0.03
sI7
F0.17
sI8
F0.18
sI9
F-0.5700000000000001
sI10
F-0.02
sI11
F0.97
sI12
F0.21
sI13
F-0.54
sI14
F0.09
sI15
F0.96
sI16
F-0.75
sI17
F0.98
sI18
F-0.92
sI19
F0.78
sI20
F0.01
sI21
F-0.74
sI22
F0.04
sI23
F-0.11
sI24
F0.85
sI25
F-0.5700000000000001
sI26
F0.71
sI27
F-0.44
sI28
F-0.97
sI29
F0.28
sI30
F-0.75
sI31
F0.63
sI32
F-0.73
sI33
F-0.84
sI34
F0.03
sI35
F0.65
sI36
F-0.52
sI37
F0.21
sI38
F0.05
sI39
F-0.8300000000000001
sI40
F-0.8200000000000001
sI41
F-0.85
sI42
F0.28
sI43
F0.63
sI44
F-0.18
ssg5
I0
ssI3
(dp101
g3
(dp102
I0
F-0.31
sI1
F0.88
sI2
F0.31
sI3
F0.97
sI4
F0.48
sI5
F-0.36
sI6
F-0.18
sI7
F0.13
sI8
F0.67
sI9
F0.24
sI10
F-0.9
sI11
F0.93
sI12
F-0.68
sI13
F-0.98
sI14
F-0.93
sI15
F0.5
sI16
F0.89
sI17
F0.9500000000000001
sI18
F-0.99
sI19
F-0.54
sI20
F-0.19
sI21
F0.43
sI22
F-0.52
sI23
F-0.49
sI24
F0.35000000000000003
sI25
F0.99
sI26
F0.64
sI27
F-0.18
sI28
F-0.14
sI29
F0.48
sI30
F-0.96
sI31
F-0.48
sI32
F-0.52
sI33
F0.08
sI34
F0.18
sI35
F-0.14
sI36
F0.58
sI37
F-0.23
sI38
F0.42
sI39
F0.32
sI40
F0.97
sI41
F0.86
sI42
F-0.9
sI43
F-0.92
sI44
F0.46
ssg5
I0
ssI4
(dp103
g3
(dp104
I0
F-0.14
sI1
F-0.6900000000000001
sI2
F0.55
sI3
F0.91
sI4
F0.32
sI5
F0.09
sI6
F0.84
sI7
F-0.51
sI8
F-0.1
sI9
F-0.66
sI10
F-0.9500000000000001
sI11
F0.27
sI12
F-0.84
sI13
F0.02
sI14
F-0.93
sI15
F-0.86
sI16
F0.06
sI17
F-0.23
sI18
F0.66
sI19
F0.38
sI20
F0.6
sI21
F-0.8300000000000001
sI22
F0.27
sI23
F0.81
sI24
F0.74
sI25
F0.1
sI26
F-0.07
sI27
F-0.33
sI28
F0.68
sI29
F-0.37
sI30
F-0.81
sI31
F0.23
sI32
F0.86
sI33
F0.42
sI34
F-0.35000000000000003
sI35
F0.5700000000000001
sI36
F-0.24
sI37
F0.17
sI38
F0.19
sI39
F0.66
sI40
F0.19
sI41
F-0.46
sI42
F-0.13
sI43
F-0.43
sI44
F0.5
ssg5
I0
ssI5
(dp105
g3
(dp106
I0
F-0.63
sI1
F0.9400000000000001
sI2
F0.34
sI3
F-0.5700000000000001
sI4
F-0.35000000000000003
sI5
F0.5700000000000001
sI6
F0.55
sI7
F0.36
sI8
F0.02
sI9
F0.9500000000000001
sI10
F0.6900000000000001
sI11
F-0.81
sI12
F-0.38
sI13
F-0.06
sI14
F-0.62
sI15
F0.47000000000000003
sI16
F-0.24
sI17
F-0.5700000000000001
sI18
F0.98
sI19
F-0.77
sI20
F-0.8300000000000001
sI21
F-0.85
sI22
F0.3
sI23
F-0.8
sI24
F-0.79
sI25
F-0.39
sI26
F0.4
sI27
F-0.5
sI28
F0.52
sI29
F-0.02
sI30
F0.17
sI31
F0.7000000000000001
sI32
F0.4
sI33
F-0.18
sI34
F-0.53
sI35
F-0.68
sI36
F-0.91
sI37
F0.26
sI38
F1.0
sI39
F-0.09
sI40
F-0.59
sI41
F0.29
sI42
F0.86
sI43
F0.74
sI44
F-0.78
ssg5
I0
ssI6
(dp107
g3
(dp108
I0
F-0.14
sI1
F-0.66
sI2
F-0.9400000000000001
sI3
F-0.26
sI4
F0.03
sI5
F-0.07
sI6
F0.85
sI7
F0.54
sI8
F0.92
sI9
F0.18
sI10
F-0.66
sI11
F0.98
sI12
F-0.15
sI13
F-0.67
sI14
F-0.28
sI15
F0.24
sI16
F-0.49
sI17
F-0.86
sI18
F-0.39
sI19
F0.9500000000000001
sI20
F-0.92
sI21
F-0.51
sI22
F-0.5700000000000001
sI23
F-0.11
sI24
F-0.46
sI25
F0.7000000000000001
sI26
F-0.96
sI27
F0.75
sI28
F-0.7000000000000001
sI29
F0.9400000000000001
sI30
F0.27
sI31
F0.18
sI32
F0.96
sI33
F0.92
sI34
F-0.86
sI35
F0.01
sI36
F0.54
sI37
F0.05
sI38
F0.15
sI39
F-0.65
sI40
F-0.1
sI41
F-0.16
sI42
F-0.96
sI43
F0.56
sI44
F-0.35000000000000003
ssg5
I0
ssI7
(dp109
g3
(dp110
I0
F-0.47000000000000003
sI1
F0.32
sI2
F0.15
sI3
F0.41000000000000003
sI4
F-0.55
sI5
F-0.5
sI6
F0.07
sI7
F0.45
sI8
F-0.51
sI9
F-0.13
sI10
F0.76
sI11
F0.71
sI12
F0.43
sI13
F-0.23
sI14
F0.46
sI15
F-0.87
sI16
F0.26
sI17
F0.46
sI18
F0.56
sI19
F0.79
sI20
F-0.49
sI21
F0.11
sI22
F0.03
sI23
F0.9500000000000001
sI24
F0.12
sI25
F-0.64
sI26
F0.21
sI27
F-0.28
sI28
F-0.49
sI29
F0.78
sI30
F0.31
sI31
F0.75
sI32
F-0.7000000000000001
sI33
F-0.24
sI34
F-0.59
sI35
F0.51
sI36
F0.8300000000000001
sI37
F-0.81
sI38
F-0.6900000000000001
sI39
F0.37
sI40
F0.88
sI41
F-0.89
sI42
F0.08
sI43
F-0.64
sI44
F0.55
ssg5
I0
ssI8
(dp111
g3
(dp112
I0
F0.31
sI1
F0.32
sI2
F-0.17
sI3
F-0.73
sI4
F-0.84
sI5
F-0.17
sI6
F0.72
sI7
F-0.8300000000000001
sI8
F0.7000000000000001
sI9
F-0.14
sI10
F-0.62
sI11
F0.8300000000000001
sI12
F-0.14
sI13
F-0.7000000000000001
sI14
F-0.93
sI15
F-0.64
sI16
F0.47000000000000003
sI17
F-0.8
sI18
F-0.24
sI19
F-0.15
sI20
F-1.0
sI21
F0.49
sI22
F-0.93
sI23
F0.09
sI24
F0.8300000000000001
sI25
F-0.21
sI26
F0.08
sI27
F0.71
sI28
F-0.63
sI29
F0.02
sI30
F-0.9400000000000001
sI31
F-0.67
sI32
F-0.64
sI33
F0.9500000000000001
sI34
F0.71
sI35
F-0.7000000000000001
sI36
F-0.65
sI37
F0.6900000000000001
sI38
F0.56
sI39
F0.96
sI40
F-0.01
sI41
F-0.78
sI42
F0.47000000000000003
sI43
F0.8
sI44
F0.62
ssg5
I0
ssI9
(dp113
g3
(dp114
I0
F0.7000000000000001
sI1
F-0.24
sI2
F-0.52
sI3
F-0.92
sI4
F0.8
sI5
F0.13
sI6
F0.11
sI7
F-0.1
sI8
F0.34
sI9
F0.97
sI10
F-0.13
sI11
F0.61
sI12
F-0.3
sI13
F0.79
sI14
F-0.15
sI15
F-0.8
sI16
F0.53
sI17
F-0.8
sI18
F0.39
sI19
F0.23
sI20
F-0.03
sI21
F-0.87
sI22
F0.64
sI23
F0.91
sI24
F0.8
sI25
F0.99
sI26
F0.54
sI27
F0.08
sI28
F0.67
sI29
F-0.9400000000000001
sI30
F0.45
sI31
F0.55
sI32
F0.9400000000000001
sI33
F-0.58
sI34
F0.46
sI35
F0.65
sI36
F0.12
sI37
F-0.55
sI38
F-0.74
sI39
F-0.33
sI40
F-0.81
sI41
F0.77
sI42
F-0.21
sI43
F-0.25
sI44
F0.8300000000000001
ssg5
I0
ssI10
(dp115
g3
(dp116
I0
F0.58
sI1
F0.65
sI2
F0.91
sI3
F0.85
sI4
F-0.6
sI5
F-0.72
sI6
F0.67
sI7
F-0.25
sI8
F0.16
sI9
F0.33
sI10
F-0.16
sI11
F0.19
sI12
F-0.42
sI13
F0.71
sI14
F-0.98
sI15
F0.98
sI16
F0.89
sI17
F-0.81
sI18
F0.41000000000000003
sI19
F0.31
sI20
F-0.42
sI21
F-0.4
sI22
F-0.02
sI23
F-0.74
sI24
F0.15
sI25
F-0.33
sI26
F-0.59
sI27
F-0.9500000000000001
sI28
F0.38
sI29
F0.4
sI30
F0.41000000000000003
sI31
F-0.53
sI32
F-0.14
sI33
F-0.14
sI34
F-0.49
sI35
F0.89
sI36
F0.8200000000000001
sI37
F-0.68
sI38
F0.29
sI39
F-0.8300000000000001
sI40
F0.8200000000000001
sI41
F-0.63
sI42
F-0.76
sI43
F0.86
sI44
F0.43
ssg5
I0
ssI11
(dp117
g3
(dp118
I0
F0.07
sI1
F0.23
sI2
F-0.84
sI3
F-0.28
sI4
F0.1
sI5
F0.58
sI6
F0.41000000000000003
sI7
F0.4
sI8
F0.87
sI9
F0.56
sI10
F-0.91
sI11
F-0.38
sI12
F-0.93
sI13
F-0.27
sI14
F0.34
sI15
F0.98
sI16
F-0.1
sI17
F0.2
sI18
F-0.32
sI19
F-0.58
sI20
F-0.9
sI21
F0.89
sI22
F0.8
sI23
F-0.68
sI24
F-0.98
sI25
F-0.81
sI26
F0.6900000000000001
sI27
F0.72
sI28
F0.42
sI29
F-0.26
sI30
F-0.88
sI31
F0.67
sI32
F0.26
sI33
F-0.07
sI34
F0.73
sI35
F-0.41000000000000003
sI36
F0.41000000000000003
sI37
F0.23
sI38
F-0.88
sI39
F-0.52
sI40
F0.9400000000000001
sI41
F-0.25
sI42
F-0.99
sI43
F-0.44
sI44
F0.44
ssg5
I0
ssI12
(dp119
g3
(dp120
I0
F0.66
sI1
F0.54
sI2
F-0.5700000000000001
sI3
F0.35000000000000003
sI4
F-0.98
sI5
F-0.23
sI6
F-0.06
sI7
F0.0
sI8
F-0.37
sI9
F-0.35000000000000003
sI10
F0.24
sI11
F0.9500000000000001
sI12
F0.24
sI13
F0.16
sI14
F0.35000000000000003
sI15
F-0.56
sI16
F1.0
sI17
F-0.89
sI18
F-0.62
sI19
F0.84
sI20
F-0.87
sI21
F-0.22
sI22
F-0.29
sI23
F-0.8300000000000001
sI24
F0.59
sI25
F-0.66
sI26
F-0.36
sI27
F-0.39
sI28
F0.65
sI29
F-0.6
sI30
F0.78
sI31
F-0.14
sI32
F0.35000000000000003
sI33
F0.02
sI34
F0.75
sI35
F0.32
sI36
F0.06
sI37
F-0.29
sI38
F-0.89
sI39
F-0.65
sI40
F-0.65
sI41
F-0.58
sI42
F0.65
sI43
F-0.71
sI44
F-0.09
ssg5
I0
ssI13
(dp121
g3
(dp122
I0
F-0.2
sI1
F-0.17
sI2
F-0.6
sI3
F0.9400000000000001
sI4
F1.0
sI5
F-0.96
sI6
F-0.67
sI7
F0.43
sI8
F0.58
sI9
F-0.93
sI10
F-0.86
sI11
F0.17
sI12
F0.44
sI13
F-0.03
sI14
F0.1
sI15
F-0.01
sI16
F0.3
sI17
F0.72
sI18
F0.54
sI19
F0.07
sI20
F-0.67
sI21
F-0.65
sI22
F0.89
sI23
F0.77
sI24
F0.5
sI25
F-0.85
sI26
F-0.46
sI27
F-0.26
sI28
F-0.79
sI29
F-0.09
sI30
F0.74
sI31
F-0.23
sI32
F0.07
sI33
F-0.08
sI34
F0.79
sI35
F-0.84
sI36
F0.03
sI37
F-0.14
sI38
F0.31
sI39
F0.22
sI40
F-0.66
sI41
F-0.67
sI42
F-0.09
sI43
F0.21
sI44
F0.41000000000000003
ssg5
I0
ssI14
(dp123
g3
(dp124
I0
F0.7000000000000001
sI1
F0.5700000000000001
sI2
F0.61
sI3
F-0.81
sI4
F0.2
sI5
F0.32
sI6
F0.77
sI7
F-0.25
sI8
F0.14
sI9
F0.22
sI10
F0.12
sI11
F-0.16
sI12
F-0.9500000000000001
sI13
F-0.93
sI14
F0.12
sI15
F0.79
sI16
F-0.61
sI17
F-0.46
sI18
F0.43
sI19
F0.1
sI20
F-0.46
sI21
F0.58
sI22
F-0.66
sI23
F0.6
sI24
F-0.49
sI25
F0.75
sI26
F0.45
sI27
F-0.19
sI28
F0.33
sI29
F-0.63
sI30
F-0.91
sI31
F0.24
sI32
F-0.22
sI33
F-0.79
sI34
F0.59
sI35
F0.8300000000000001
sI36
F-0.07
sI37
F0.6
sI38
F0.74
sI39
F-0.48
sI40
F0.23
sI41
F1.0
sI42
F-0.39
sI43
F0.68
sI44
F-0.98
ssg5
I0
ssI15
(dp125
g3
(dp126
I0
F0.59
sI1
F0.07
sI2
F-0.64
sI3
F-0.21
sI4
F0.09
sI5
F-0.65
sI6
F0.18
sI7
F0.22
sI8
F-0.58
sI9
F-0.03
sI10
F0.39
sI11
F0.26
sI12
F-0.24
sI13
F0.0
sI14
F-0.87
sI15
F-0.9400000000000001
sI16
F0.78
sI17
F-0.59
sI18
F-0.22
sI19
F0.05
sI20
F-0.8
sI21
F-0.17
sI22
F-0.77
sI23
F-0.58
sI24
F0.03
sI25
F-0.23
sI26
F-0.46
sI27
F-0.3
sI28
F0.17
sI29
F-0.18
sI30
F0.42
sI31
F-0.99
sI32
F-0.47000000000000003
sI33
F0.74
sI34
F-0.53
sI35
F0.37
sI36
F-0.3
sI37
F-0.3
sI38
F-0.46
sI39
F-0.01
sI40
F-0.06
sI41
F0.8200000000000001
sI42
F0.05
sI43
F0.9400000000000001
sI44
F-0.01
ssg5
I0
ssI16
(dp127
g3
(dp128
I0
F0.66
sI1
F0.63
sI2
F0.68
sI3
F0.0
sI4
F-0.2
sI5
F0.09
sI6
F0.93
sI7
F0.01
sI8
F0.93
sI9
F-0.32
sI10
F0.61
sI11
F0.5700000000000001
sI12
F0.55
sI13
F0.56
sI14
F-0.5
sI15
F0.64
sI16
F0.07
sI17
F-0.44
sI18
F-0.73
sI19
F0.8300000000000001
sI20
F0.52
sI21
F0.17
sI22
F0.18
sI23
F0.3
sI24
F0.18
sI25
F0.32
sI26
F-0.66
sI27
F0.34
sI28
F-0.8
sI29
F-0.13
sI30
F-0.55
sI31
F-0.21
sI32
F-0.25
sI33
F-0.81
sI34
F0.08
sI35
F-0.84
sI36
F-0.9
sI37
F-0.66
sI38
F-0.1
sI39
F-0.38
sI40
F-0.5
sI41
F-0.27
sI42
F0.3
sI43
F0.77
sI44
F0.04
ssg5
I0
ssI17
(dp129
g3
(dp130
I0
F0.97
sI1
F0.79
sI2
F-0.2
sI3
F-0.31
sI4
F0.61
sI5
F0.23
sI6
F0.97
sI7
F-0.84
sI8
F-0.42
sI9
F0.08
sI10
F0.08
sI11
F0.24
sI12
F0.01
sI13
F0.78
sI14
F0.16
sI15
F0.65
sI16
F0.9400000000000001
sI17
F0.09
sI18
F0.16
sI19
F-0.8200000000000001
sI20
F-0.03
sI21
F0.38
sI22
F-0.52
sI23
F0.33
sI24
F-0.68
sI25
F0.96
sI26
F0.78
sI27
F0.49
sI28
F0.63
sI29
F-0.74
sI30
F0.78
sI31
F0.84
sI32
F-0.16
sI33
F-0.68
sI34
F0.39
sI35
F0.79
sI36
F-0.11
sI37
F-0.16
sI38
F-0.74
sI39
F-0.22
sI40
F0.42
sI41
F-0.99
sI42
F-0.88
sI43
F0.97
sI44
F-0.8300000000000001
ssg5
I0
ssI18
(dp131
g3
(dp132
I0
F0.73
sI1
F-0.1
sI2
F0.08
sI3
F-0.04
sI4
F-0.66
sI5
F-0.04
sI6
F0.49
sI7
F-0.07
sI8
F0.02
sI9
F0.34
sI10
F0.71
sI11
F-0.56
sI12
F-0.64
sI13
F-0.28
sI14
F0.25
sI15
F0.14
sI16
F-0.12
sI17
F0.87
sI18
F-0.13
sI19
F-0.48
sI20
F0.4
sI21
F0.63
sI22
F-0.36
sI23
F-0.39
sI24
F0.34
sI25
F0.87
sI26
F0.29
sI27
F-0.08
sI28
F0.12
sI29
F0.91
sI30
F-0.76
sI31
F-0.22
sI32
F0.89
sI33
F0.04
sI34
F-0.92
sI35
F-0.62
sI36
F-0.6
sI37
F-0.6
sI38
F-0.06
sI39
F-0.9
sI40
F0.16
sI41
F-0.71
sI42
F-0.99
sI43
F-0.73
sI44
F0.84
ssg5
I0
ssI19
(dp133
g3
(dp134
I0
F0.66
sI1
F-0.33
sI2
F-0.33
sI3
F0.41000000000000003
sI4
F-0.15
sI5
F0.09
sI6
F-0.18
sI7
F0.8300000000000001
sI8
F0.54
sI9
F0.73
sI10
F-1.0
sI11
F0.78
sI12
F0.6
sI13
F-0.38
sI14
F-0.5
sI15
F0.41000000000000003
sI16
F0.93
sI17
F0.89
sI18
F0.19
sI19
F0.32
sI20
F-0.18
sI21
F-0.27
sI22
F0.24
sI23
F-0.5
sI24
F1.0
sI25
F-0.87
sI26
F-0.4
sI27
F0.44
sI28
F-0.35000000000000003
sI29
F0.9400000000000001
sI30
F-0.8
sI31
F-0.97
sI32
F-0.06
sI33
F0.65
sI34
F0.07
sI35
F0.9400000000000001
sI36
F0.38
sI37
F0.9
sI38
F-0.53
sI39
F0.75
sI40
F-0.25
sI41
F-0.24
sI42
F-1.0
sI43
F-0.87
sI44
F0.33
ssg5
I0
ssI20
(dp135
g3
(dp136
I0
F-0.43
sI1
F0.42
sI2
F-0.1
sI3
F0.28
sI4
F0.17
sI5
F0.04
sI6
F0.8
sI7
F0.33
sI8
F0.81
sI9
F-0.42
sI10
F-0.64
sI11
F0.33
sI12
F-0.09
sI13
F0.89
sI14
F0.74
sI15
F0.45
sI16
F-0.34
sI17
F0.66
sI18
F0.87
sI19
F0.47000000000000003
sI20
F0.85
sI21
F0.92
sI22
F-1.0
sI23
F0.8200000000000001
sI24
F0.53
sI25
F-0.81
sI26
F-0.06
sI27
F0.99
sI28
F-0.4
sI29
F-0.4
sI30
F-0.03
sI31
F-0.49
sI32
F0.98
sI33
F-0.87
sI34
F0.19
sI35
F0.04
sI36
F0.6900000000000001
sI37
F-0.64
sI38
F-0.7000000000000001
sI39
F0.56
sI40
F-0.49
sI41
F0.77
sI42
F-0.67
sI43
F-0.64
sI44
F0.62
ssg5
I0
ssI21
(dp137
g3
(dp138
I0
F0.18
sI1
F0.22
sI2
F-0.75
sI3
F0.45
sI4
F-0.93
sI5
F0.52
sI6
F-0.59
sI7
F-0.87
sI8
F-0.22
sI9
F0.71
sI10
F-0.09
sI11
F-0.61
sI12
F0.99
sI13
F0.43
sI14
F-0.8200000000000001
sI15
F-0.3
sI16
F-0.76
sI17
F0.61
sI18
F-0.5700000000000001
sI19
F0.03
sI20
F0.65
sI21
F0.14
sI22
F0.91
sI23
F-0.6
sI24
F-0.65
sI25
F-0.99
sI26
F-0.49
sI27
F-0.35000000000000003
sI28
F0.5
sI29
F0.01
sI30
F0.89
sI31
F0.38
sI32
F-0.85
sI33
F0.85
sI34
F-0.75
sI35
F0.56
sI36
F0.78
sI37
F-0.46
sI38
F-0.91
sI39
F-0.14
sI40
F-0.03
sI41
F-0.48
sI42
F0.23
sI43
F-0.86
sI44
F0.32
ssg5
I0
ssI22
(dp139
g3
(dp140
I0
F0.7000000000000001
sI1
F0.16
sI2
F-0.56
sI3
F-0.78
sI4
F-1.0
sI5
F-0.03
sI6
F0.32
sI7
F0.66
sI8
F-0.43
sI9
F-0.64
sI10
F-0.64
sI11
F-0.43
sI12
F-0.54
sI13
F0.66
sI14
F-0.25
sI15
F0.9500000000000001
sI16
F0.36
sI17
F-0.85
sI18
F-0.75
sI19
F-0.39
sI20
F-0.65
sI21
F0.15
sI22
F-0.1
sI23
F-0.65
sI24
F-0.49
sI25
F0.99
sI26
F-0.9
sI27
F-0.33
sI28
F-0.12
sI29
F0.44
sI30
F-0.08
sI31
F-0.18
sI32
F-0.87
sI33
F0.79
sI34
F-0.14
sI35
F0.36
sI36
F-0.06
sI37
F-0.19
sI38
F0.9500000000000001
sI39
F-0.71
sI40
F-0.51
sI41
F-0.63
sI42
F0.79
sI43
F-0.71
sI44
F-0.6
ssg5
I0
ssI23
(dp141
g3
(dp142
I0
F-0.98
sI1
F0.39
sI2
F0.74
sI3
F-0.54
sI4
F-0.28
sI5
F0.37
sI6
F0.25
sI7
F-0.43
sI8
F-0.84
sI9
F-0.64
sI10
F-0.9500000000000001
sI11
F0.36
sI12
F0.89
sI13
F0.5
sI14
F-0.59
sI15
F0.25
sI16
F0.5
sI17
F0.5
sI18
F-0.5
sI19
F-0.65
sI20
F-0.1
sI21
F-0.73
sI22
F-0.15
sI23
F-0.6900000000000001
sI24
F-0.32
sI25
F0.72
sI26
F0.91
sI27
F-0.75
sI28
F0.78
sI29
F-0.89
sI30
F-0.36
sI31
F0.74
sI32
F-0.03
sI33
F-0.55
sI34
F0.25
sI35
F0.86
sI36
F-0.9
sI37
F-0.78
sI38
F0.8300000000000001
sI39
F-0.8300000000000001
sI40
F-0.15
sI41
F-0.25
sI42
F0.74
sI43
F-0.24
sI44
F0.59
ssg5
I0
ssI24
(dp143
g3
(dp144
I0
F0.73
sI1
F0.31
sI2
F-0.8
sI3
F-0.39
sI4
F-0.27
sI5
F0.6900000000000001
sI6
F-0.88
sI7
F-0.27
sI8
F-0.26
sI9
F-0.25
sI10
F0.18
sI11
F0.86
sI12
F0.5700000000000001
sI13
F0.06
sI14
F0.89
sI15
F0.8300000000000001
sI16
F0.0
sI17
F-0.9
sI18
F0.96
sI19
F0.27
sI20
F-0.87
sI21
F-0.74
sI22
F-0.75
sI23
F-0.34
sI24
F0.59
sI25
F-0.6
sI26
F0.48
sI27
F-0.8
sI28
F0.39
sI29
F-0.4
sI30
F0.48
sI31
F-0.18
sI32
F-0.75
sI33
F-0.67
sI34
F0.07
sI35
F-0.05
sI36
F0.58
sI37
F0.05
sI38
F0.62
sI39
F0.63
sI40
F0.81
sI41
F-0.35000000000000003
sI42
F-0.81
sI43
F0.75
sI44
F0.34
ssg5
I0
ssI25
(dp145
g3
(dp146
I0
F-0.2
sI1
F-0.76
sI2
F-0.09
sI3
F0.3
sI4
F-0.75
sI5
F-0.78
sI6
F-0.96
sI7
F-0.8
sI8
F0.5700000000000001
sI9
F0.6900000000000001
sI10
F-0.28
sI11
F0.58
sI12
F0.77
sI13
F0.33
sI14
F-0.84
sI15
F-0.92
sI16
F0.81
sI17
F-0.9400000000000001
sI18
F0.91
sI19
F-0.3
sI20
F0.18
sI21
F0.14
sI22
F-0.9
sI23
F0.07
sI24
F0.6900000000000001
sI25
F-1.0
sI26
F-0.3
sI27
F0.52
sI28
F0.68
sI29
F0.27
sI30
F0.06
sI31
F0.43
sI32
F0.89
sI33
F-0.66
sI34
F-0.61
sI35
F-0.41000000000000003
sI36
F0.45
sI37
F0.88
sI38
F-0.87
sI39
F0.46
sI40
F0.3
sI41
F-0.51
sI42
F0.43
sI43
F0.5
sI44
F-0.01
ssg5
I0
ssI26
(dp147
g3
(dp148
I0
F0.89
sI1
F-0.15
sI2
F-0.19
sI3
F-0.73
sI4
F-0.48
sI5
F0.21
sI6
F-0.13
sI7
F0.5700000000000001
sI8
F0.45
sI9
F-0.17
sI10
F-0.26
sI11
F0.53
sI12
F-0.11
sI13
F-0.37
sI14
F-0.5700000000000001
sI15
F0.36
sI16
F0.19
sI17
F-0.58
sI18
F0.59
sI19
F0.79
sI20
F-0.99
sI21
F-0.05
sI22
F0.14
sI23
F-0.62
sI24
F-0.45
sI25
F-0.05
sI26
F-0.56
sI27
F-0.9
sI28
F-0.05
sI29
F-0.78
sI30
F-0.77
sI31
F-0.3
sI32
F-0.27
sI33
F-0.23
sI34
F0.1
sI35
F0.53
sI36
F-0.86
sI37
F0.11
sI38
F-0.85
sI39
F0.66
sI40
F0.3
sI41
F-0.85
sI42
F-0.06
sI43
F0.6
sI44
F-0.77
ssg5
I0
ssI27
(dp149
g3
(dp150
I0
F-0.3
sI1
F-0.59
sI2
F-0.6900000000000001
sI3
F0.77
sI4
F0.54
sI5
F0.17
sI6
F0.54
sI7
F-0.77
sI8
F0.9400000000000001
sI9
F-0.01
sI10
F-0.34
sI11
F-0.78
sI12
F0.93
sI13
F0.17
sI14
F-0.81
sI15
F-0.5700000000000001
sI16
F0.9
sI17
F-0.03
sI18
F0.85
sI19
F-0.66
sI20
F-0.17
sI21
F0.33
sI22
F-0.19
sI23
F-0.32
sI24
F-0.04
sI25
F0.8300000000000001
sI26
F0.92
sI27
F-0.77
sI28
F1.0
sI29
F-0.97
sI30
F0.76
sI31
F0.16
sI32
F0.43
sI33
F-0.74
sI34
F0.24
sI35
F-0.09
sI36
F-0.9500000000000001
sI37
F-0.4
sI38
F-0.68
sI39
F-0.86
sI40
F0.06
sI41
F-0.2
sI42
F0.74
sI43
F0.62
sI44
F0.36
ssg5
I0
ssI28
(dp151
g3
(dp152
I0
F-0.28
sI1
F0.89
sI2
F0.23
sI3
F0.14
sI4
F0.48
sI5
F0.72
sI6
F0.09
sI7
F-0.9400000000000001
sI8
F-0.13
sI9
F0.35000000000000003
sI10
F0.99
sI11
F0.65
sI12
F0.87
sI13
F-0.29
sI14
F-0.31
sI15
F-0.72
sI16
F0.11
sI17
F-0.11
sI18
F0.21
sI19
F-0.96
sI20
F-0.46
sI21
F0.86
sI22
F-0.12
sI23
F0.72
sI24
F0.8
sI25
F0.03
sI26
F0.8300000000000001
sI27
F0.18
sI28
F0.29
sI29
F-0.01
sI30
F0.4
sI31
F0.49
sI32
F0.38
sI33
F0.62
sI34
F-0.92
sI35
F0.46
sI36
F-0.9500000000000001
sI37
F0.74
sI38
F1.0
sI39
F0.61
sI40
F-0.6900000000000001
sI41
F0.96
sI42
F-0.03
sI43
F0.72
sI44
F0.08
ssg5
I0
ssI29
(dp153
g3
(dp154
I0
F-0.41000000000000003
sI1
F0.29
sI2
F0.74
sI3
F-1.0
sI4
F1.0
sI5
F0.46
sI6
F-0.15
sI7
F0.3
sI8
F-0.27
sI9
F-0.27
sI10
F0.35000000000000003
sI11
F-0.47000000000000003
sI12
F0.34
sI13
F-0.23
sI14
F0.53
sI15
F0.25
sI16
F0.3
sI17
F0.42
sI18
F0.8200000000000001
sI19
F-0.4
sI20
F0.29
sI21
F-0.22
sI22
F0.03
sI23
F-0.97
sI24
F0.6
sI25
F0.26
sI26
F-0.87
sI27
F0.88
sI28
F0.01
sI29
F0.8
sI30
F0.08
sI31
F0.87
sI32
F0.74
sI33
F-0.31
sI34
F0.75
sI35
F-0.15
sI36
F0.73
sI37
F0.27
sI38
F0.22
sI39
F0.66
sI40
F-0.27
sI41
F0.86
sI42
F-0.62
sI43
F0.26
sI44
F0.88
ssg5
I0
ssI30
(dp155
g3
(dp156
I0
F0.41000000000000003
sI1
F0.59
sI2
F0.29
sI3
F0.28
sI4
F0.52
sI5
F0.56
sI6
F0.41000000000000003
sI7
F0.13
sI8
F0.61
sI9
F-0.87
sI10
F0.53
sI11
F-0.25
sI12
F0.16
sI13
F0.33
sI14
F0.88
sI15
F0.73
sI16
F-0.9500000000000001
sI17
F0.87
sI18
F-0.08
sI19
F0.24
sI20
F0.52
sI21
F0.75
sI22
F-0.6
sI23
F0.78
sI24
F0.56
sI25
F0.43
sI26
F-0.17
sI27
F-0.16
sI28
F-0.35000000000000003
sI29
F0.49
sI30
F0.5700000000000001
sI31
F0.09
sI32
F-0.8200000000000001
sI33
F-0.85
sI34
F-0.9400000000000001
sI35
F0.98
sI36
F-0.09
sI37
F-0.6
sI38
F0.66
sI39
F0.99
sI40
F-0.1
sI41
F-0.32
sI42
F-0.42
sI43
F0.84
sI44
F-0.33
ssg5
I0
ssI31
(dp157
g3
(dp158
I0
F0.07
sI1
F-0.33
sI2
F0.46
sI3
F0.36
sI4
F-0.46
sI5
F0.71
sI6
F0.79
sI7
F-0.01
sI8
F-0.52
sI9
F0.66
sI10
F0.29
sI11
F-0.67
sI12
F0.91
sI13
F0.59
sI14
F0.46
sI15
F-0.78
sI16
F-0.33
sI17
F-0.35000000000000003
sI18
F-0.87
sI19
F0.2
sI20
F-0.22
sI21
F-0.74
sI22
F-0.16
sI23
F0.91
sI24
F0.61
sI25
F0.21
sI26
F-0.93
sI27
F0.29
sI28
F0.86
sI29
F-0.17
sI30
F-0.05
sI31
F-0.51
sI32
F-0.14
sI33
F-0.39
sI34
F-0.37
sI35
F-0.02
sI36
F0.9500000000000001
sI37
F0.91
sI38
F-0.32
sI39
F-0.67
sI40
F0.29
sI41
F0.13
sI42
F0.6
sI43
F0.58
sI44
F-0.48
ssg5
I0
ssI32
(dp159
g3
(dp160
I0
F-0.86
sI1
F0.8300000000000001
sI2
F-0.68
sI3
F0.77
sI4
F0.35000000000000003
sI5
F-0.61
sI6
F-0.14
sI7
F0.11
sI8
F-0.18
sI9
F-0.77
sI10
F-1.0
sI11
F0.78
sI12
F0.33
sI13
F0.91
sI14
F0.8
sI15
F-0.88
sI16
F-0.85
sI17
F-0.79
sI18
F-0.28
sI19
F0.34
sI20
F-0.54
sI21
F0.45
sI22
F0.56
sI23
F0.24
sI24
F-0.85
sI25
F-0.65
sI26
F-0.49
sI27
F1.0
sI28
F-0.07
sI29
F-0.63
sI30
F-0.54
sI31
F0.5700000000000001
sI32
F-0.26
sI33
F0.28
sI34
F0.66
sI35
F-0.43
sI36
F0.11
sI37
F0.98
sI38
F-0.21
sI39
F-0.39
sI40
F-0.54
sI41
F0.73
sI42
F-0.75
sI43
F-0.61
sI44
F-0.38
ssg5
I0
ssI33
(dp161
g3
(dp162
I0
F-0.92
sI1
F-0.17
sI2
F-0.03
sI3
F0.27
sI4
F0.6900000000000001
sI5
F0.52
sI6
F-0.61
sI7
F0.1
sI8
F-0.99
sI9
F0.91
sI10
F0.13
sI11
F0.35000000000000003
sI12
F-0.28
sI13
F-0.09
sI14
F-0.13
sI15
F0.02
sI16
F0.19
sI17
F-0.11
sI18
F0.31
sI19
F-0.16
sI20
F0.17
sI21
F0.98
sI22
F0.31
sI23
F0.43
sI24
F0.45
sI25
F0.31
sI26
F0.88
sI27
F-0.09
sI28
F-0.9400000000000001
sI29
F0.9400000000000001
sI30
F-0.02
sI31
F0.39
sI32
F0.54
sI33
F-0.3
sI34
F-0.24
sI35
F-0.01
sI36
F-0.3
sI37
F0.87
sI38
F0.16
sI39
F-0.1
sI40
F-0.91
sI41
F-0.39
sI42
F-0.92
sI43
F0.89
sI44
F0.0
ssg5
I0
ssI34
(dp163
g3
(dp164
I0
F-0.53
sI1
F-0.91
sI2
F0.68
sI3
F0.78
sI4
F-0.4
sI5
F-0.8300000000000001
sI6
F-0.55
sI7
F0.63
sI8
F0.41000000000000003
sI9
F0.86
sI10
F-0.93
sI11
F0.0
sI12
F0.36
sI13
F-0.61
sI14
F-0.81
sI15
F0.7000000000000001
sI16
F-0.54
sI17
F-0.71
sI18
F0.64
sI19
F-0.29
sI20
F-0.03
sI21
F0.72
sI22
F0.33
sI23
F0.77
sI24
F-0.81
sI25
F0.1
sI26
F-0.08
sI27
F0.87
sI28
F-0.32
sI29
F-0.8200000000000001
sI30
F-0.19
sI31
F0.35000000000000003
sI32
F0.11
sI33
F-0.67
sI34
F0.1
sI35
F-0.26
sI36
F0.15
sI37
F-0.01
sI38
F-0.8
sI39
F0.55
sI40
F-0.31
sI41
F-0.19
sI42
F0.73
sI43
F-1.0
sI44
F-0.27
ssg5
I0
ssI35
(dp165
g3
(dp166
I0
F-0.34
sI1
F-0.14
sI2
F-0.41000000000000003
sI3
F-0.38
sI4
F0.06
sI5
F0.31
sI6
F-0.87
sI7
F0.7000000000000001
sI8
F0.45
sI9
F0.48
sI10
F0.9400000000000001
sI11
F-0.66
sI12
F0.41000000000000003
sI13
F0.35000000000000003
sI14
F0.24
sI15
F0.0
sI16
F0.4
sI17
F-0.16
sI18
F-0.64
sI19
F-0.28
sI20
F-0.01
sI21
F0.4
sI22
F-0.78
sI23
F0.18
sI24
F-0.89
sI25
F-0.54
sI26
F0.9
sI27
F-0.65
sI28
F0.58
sI29
F0.91
sI30
F0.97
sI31
F0.6
sI32
F0.93
sI33
F-0.37
sI34
F0.68
sI35
F-0.16
sI36
F-0.35000000000000003
sI37
F0.9
sI38
F0.07
sI39
F-0.7000000000000001
sI40
F-0.27
sI41
F-0.9400000000000001
sI42
F-0.78
sI43
F0.19
sI44
F0.87
ssg5
I0
ssI36
(dp167
g3
(dp168
I0
F0.67
sI1
F-0.47000000000000003
sI2
F0.03
sI3
F0.47000000000000003
sI4
F-0.47000000000000003
sI5
F0.54
sI6
F-0.89
sI7
F0.38
sI8
F0.45
sI9
F0.97
sI10
F0.58
sI11
F0.4
sI12
F0.76
sI13
F-0.93
sI14
F0.93
sI15
F0.5700000000000001
sI16
F-0.93
sI17
F0.16
sI18
F-0.6
sI19
F1.0
sI20
F0.06
sI21
F-0.68
sI22
F-0.13
sI23
F0.54
sI24
F0.19
sI25
F-0.88
sI26
F-0.02
sI27
F0.27
sI28
F-0.72
sI29
F-0.54
sI30
F-0.24
sI31
F-0.68
sI32
F0.8300000000000001
sI33
F1.0
sI34
F0.55
sI35
F-0.19
sI36
F-0.8200000000000001
sI37
F0.79
sI38
F-0.54
sI39
F0.33
sI40
F-0.79
sI41
F0.44
sI42
F-0.11
sI43
F0.67
sI44
F-0.46
ssg5
I0
ssI37
(dp169
g3
(dp170
I0
F0.58
sI1
F0.24
sI2
F0.77
sI3
F-0.34
sI4
F-0.41000000000000003
sI5
F-0.35000000000000003
sI6
F1.0
sI7
F0.86
sI8
F-0.36
sI9
F-0.48
sI10
F0.89
sI11
F0.54
sI12
F-0.17
sI13
F-0.5700000000000001
sI14
F-0.54
sI15
F-0.04
sI16
F0.37
sI17
F-0.49
sI18
F0.02
sI19
F0.89
sI20
F-0.61
sI21
F-0.36
sI22
F-0.49
sI23
F-0.52
sI24
F-0.7000000000000001
sI25
F-0.75
sI26
F0.99
sI27
F-0.9500000000000001
sI28
F0.39
sI29
F-0.9400000000000001
sI30
F-0.05
sI31
F-0.58
sI32
F-0.92
sI33
F0.16
sI34
F-0.3
sI35
F-0.59
sI36
F-0.1
sI37
F0.79
sI38
F-0.38
sI39
F-0.97
sI40
F0.33
sI41
F0.8200000000000001
sI42
F0.5
sI43
F0.45
sI44
F0.77
ssg5
I0
ssI38
(dp171
g3
(dp172
I0
F0.32
sI1
F0.46
sI2
F0.78
sI3
F-0.16
sI4
F0.9500000000000001
sI5
F0.41000000000000003
sI6
F-0.71
sI7
F0.88
sI8
F-0.8
sI9
F-0.38
sI10
F-0.02
sI11
F-0.47000000000000003
sI12
F-0.99
sI13
F0.55
sI14
F-0.44
sI15
F-0.5700000000000001
sI16
F-0.17
sI17
F0.58
sI18
F-0.73
sI19
F-0.78
sI20
F0.86
sI21
F0.1
sI22
F0.61
sI23
F-0.27
sI24
F0.44
sI25
F-0.11
sI26
F0.08
sI27
F0.99
sI28
F-0.9400000000000001
sI29
F-0.9400000000000001
sI30
F-0.88
sI31
F0.19
sI32
F-0.24
sI33
F-0.25
sI34
F0.84
sI35
F-0.71
sI36
F-0.65
sI37
F0.7000000000000001
sI38
F0.53
sI39
F-0.38
sI40
F0.84
sI41
F0.33
sI42
F-0.62
sI43
F-0.02
sI44
F0.27
ssg5
I0
ssI39
(dp173
g3
(dp174
I0
F-0.39
sI1
F-0.51
sI2
F0.79
sI3
F0.7000000000000001
sI4
F-0.17
sI5
F-0.88
sI6
F-0.29
sI7
F-0.25
sI8
F0.15
sI9
F0.06
sI10
F0.9
sI11
F0.04
sI12
F-0.8200000000000001
sI13
F0.65
sI14
F-0.81
sI15
F0.74
sI16
F0.56
sI17
F0.9400000000000001
sI18
F-0.08
sI19
F-0.24
sI20
F-0.53
sI21
F0.5700000000000001
sI22
F-0.84
sI23
F-0.39
sI24
F0.55
sI25
F-0.63
sI26
F0.39
sI27
F-0.29
sI28
F0.99
sI29
F-0.4
sI30
F0.77
sI31
F0.71
sI32
F-0.15
sI33
F-0.05
sI34
F0.1
sI35
F-0.36
sI36
F0.34
sI37
F0.38
sI38
F0.85
sI39
F0.66
sI40
F-0.43
sI41
F-0.36
sI42
F0.6900000000000001
sI43
F0.64
sI44
F-0.3
ssg5
I0
ssI40
(dp175
g3
(dp176
I0
F0.59
sI1
F-0.45
sI2
F0.78
sI3
F-1.0
sI4
F0.07
sI5
F-0.73
sI6
F-0.97
sI7
F0.78
sI8
F-0.74
sI9
F-0.51
sI10
F0.8300000000000001
sI11
F0.84
sI12
F0.01
sI13
F0.19
sI14
F0.25
sI15
F-0.13
sI16
F0.58
sI17
F-0.8
sI18
F-0.98
sI19
F0.4
sI20
F0.15
sI21
F-0.09
sI22
F0.43
sI23
F-0.3
sI24
F0.17
sI25
F0.9
sI26
F0.16
sI27
F0.63
sI28
F0.59
sI29
F-0.19
sI30
F-1.0
sI31
F0.64
sI32
F0.21
sI33
F0.21
sI34
F-0.13
sI35
F0.35000000000000003
sI36
F-0.51
sI37
F-0.89
sI38
F0.08
sI39
F-0.43
sI40
F-0.97
sI41
F-0.71
sI42
F0.58
sI43
F-0.91
sI44
F0.13
ssg5
I0
ssI41
(dp177
g3
(dp178
I0
F0.15
sI1
F-0.79
sI2
F0.38
sI3
F0.35000000000000003
sI4
F-0.05
sI5
F0.44
sI6
F0.66
sI7
F-0.14
sI8
F-0.65
sI9
F-0.27
sI10
F0.86
sI11
F0.29
sI12
F-0.88
sI13
F0.12
sI14
F0.22
sI15
F0.18
sI16
F0.98
sI17
F-0.52
sI18
F0.07
sI19
F-0.59
sI20
F-0.28
sI21
F0.77
sI22
F-0.81
sI23
F0.77
sI24
F0.54
sI25
F0.5
sI26
F-0.6
sI27
F-0.81
sI28
F-0.78
sI29
F-0.03
sI30
F0.4
sI31
F-0.38
sI32
F0.33
sI33
F0.49
sI34
F0.6
sI35
F0.37
sI36
F-0.75
sI37
F0.47000000000000003
sI38
F-0.21
sI39
F-0.98
sI40
F0.96
sI41
F-0.31
sI42
F-0.66
sI43
F-0.1
sI44
F-0.47000000000000003
ssg5
I0
ssI42
(dp179
g3
(dp180
I0
F0.49
sI1
F-0.85
sI2
F-0.21
sI3
F-0.35000000000000003
sI4
F0.46
sI5
F-0.5
sI6
F-0.93
sI7
F0.12
sI8
F-0.97
sI9
F-0.58
sI10
F-0.79
sI11
F-0.55
sI12
F-0.13
sI13
F0.87
sI14
F-0.72
sI15
F0.33
sI16
F0.34
sI17
F-0.13
sI18
F-0.9500000000000001
sI19
F-0.92
sI20
F0.33
sI21
F0.52
sI22
F-0.97
sI23
F-0.84
sI24
F0.2
sI25
F1.0
sI26
F0.88
sI27
F-0.79
sI28
F0.65
sI29
F0.26
sI30
F-0.27
sI31
F0.61
sI32
F0.87
sI33
F0.41000000000000003
sI34
F0.48
sI35
F0.91
sI36
F-0.2
sI37
F-0.34
sI38
F-0.25
sI39
F-0.86
sI40
F-0.68
sI41
F-0.05
sI42
F-0.8
sI43
F0.65
sI44
F-0.5700000000000001
ssg5
I0
ssI43
(dp181
g3
(dp182
I0
F0.42
sI1
F-0.31
sI2
F0.65
sI3
F0.04
sI4
F-0.37
sI5
F-0.19
sI6
F-0.18
sI7
F0.01
sI8
F0.08
sI9
F-0.25
sI10
F-0.8
sI11
F-0.55
sI12
F-0.8
sI13
F-0.01
sI14
F-0.68
sI15
F0.22
sI16
F-0.53
sI17
F0.81
sI18
F-0.81
sI19
F-0.59
sI20
F-0.38
sI21
F0.54
sI22
F0.74
sI23
F-0.16
sI24
F0.31
sI25
F-0.39
sI26
F0.53
sI27
F-0.76
sI28
F-0.19
sI29
F-0.31
sI30
F0.35000000000000003
sI31
F-0.24
sI32
F-0.62
sI33
F-0.32
sI34
F-0.9500000000000001
sI35
F0.98
sI36
F-0.72
sI37
F-0.84
sI38
F0.81
sI39
F-0.5700000000000001
sI40
F-0.9400000000000001
sI41
F0.64
sI42
F-0.92
sI43
F0.44
sI44
F-0.98
ssg5
I0
ssI44
(dp183
g3
(dp184
I0
F0.19
sI1
F0.19
sI2
F-0.61
sI3
F0.21
sI4
F0.09
sI5
F0.91
sI6
F-0.2
sI7
F0.7000000000000001
sI8
F0.72
sI9
F-0.62
sI10
F-0.02
sI11
F-0.72
sI12
F-0.13
sI13
F-0.32
sI14
F-0.61
sI15
F-0.85
sI16
F-0.71
sI17
F0.97
sI18
F-0.01
sI19
F0.71
sI20
F-0.26
sI21
F-0.37
sI22
F0.76
sI23
F0.09
sI24
F0.89
sI25
F0.5700000000000001
sI26
F0.54
sI27
F-0.67
sI28
F0.41000000000000003
sI29
F-0.46
sI30
F0.53
sI31
F-0.58
sI32
F0.87
sI33
F0.71
sI34
F-0.21
sI35
F-0.84
sI36
F-0.15
sI37
F-0.08
sI38
F-0.25
sI39
F0.85
sI40
F-0.6
sI41
F0.34
sI42
F0.02
sI43
F-0.04
sI44
F0.8200000000000001
ssg5
I0
ssI45
(dp185
g3
(dp186
I0
F-0.14
sI1
F0.99
sI2
F0.2
sI3
F-0.8200000000000001
sI4
F0.02
sI5
F0.6900000000000001
sI6
F0.12
sI7
F0.99
sI8
F0.8200000000000001
sI9
F-0.43
sI10
F-0.49
sI11
F1.0
sI12
F0.8200000000000001
sI13
F0.74
sI14
F-0.6900000000000001
sI15
F-0.8
sI16
F-0.46
sI17
F-0.11
sI18
F-0.59
sI19
F-0.4
sI20
F0.64
sI21
F0.4
sI22
F-0.9500000000000001
sI23
F-0.38
sI24
F0.25
sI25
F-0.42
sI26
F0.1
sI27
F-0.09
sI28
F0.32
sI29
F0.46
sI30
F0.09
sI31
F0.38
sI32
F-0.13
sI33
F-0.66
sI34
F-0.6
sI35
F-0.4
sI36
F0.29
sI37
F0.21
sI38
F-0.21
sI39
F0.49
sI40
F0.75
sI41
F-0.9
sI42
F-0.2
sI43
F-0.59
sI44
F-0.03
ssg5
I0
ssI46
(dp187
g3
(dp188
I0
F0.0
sI1
F0.76
sI2
F0.6
sI3
F0.58
sI4
F-0.86
sI5
F0.6900000000000001
sI6
F0.31
sI7
F-0.92
sI8
F0.49
sI9
F0.73
sI10
F-0.16
sI11
F-0.34
sI12
F0.1
sI13
F-0.6900000000000001
sI14
F0.21
sI15
F-0.1
sI16
F0.67
sI17
F0.43
sI18
F0.71
sI19
F0.05
sI20
F0.51
sI21
F-0.21
sI22
F-0.3
sI23
F-0.12
sI24
F0.7000000000000001
sI25
F-0.14
sI26
F0.4
sI27
F-0.03
sI28
F0.51
sI29
F-0.96
sI30
F0.43
sI31
F-0.67
sI32
F0.22
sI33
F0.9
sI34
F-0.89
sI35
F0.96
sI36
F-0.89
sI37
F0.36
sI38
F0.55
sI39
F-0.8300000000000001
sI40
F-0.77
sI41
F0.76
sI42
F0.24
sI43
F0.54
sI44
F-0.52
ssg5
I0
ssI47
(dp189
g3
(dp190
I0
F0.96
sI1
F-0.73
sI2
F-0.67
sI3
F0.5700000000000001
sI4
F-0.48
sI5
F-0.48
sI6
F-0.71
sI7
F0.98
sI8
F-0.22
sI9
F-0.5700000000000001
sI10
F0.18
sI11
F0.9
sI12
F-0.55
sI13
F-0.71
sI14
F0.6
sI15
F-0.8200000000000001
sI16
F-0.12
sI17
F-0.31
sI18
F-0.11
sI19
F-0.44
sI20
F0.66
sI21
F-0.81
sI22
F0.26
sI23
F0.04
sI24
F0.3
sI25
F-0.47000000000000003
sI26
F0.09
sI27
F-0.92
sI28
F0.9500000000000001
sI29
F0.07
sI30
F0.49
sI31
F0.32
sI32
F0.85
sI33
F0.22
sI34
F-0.97
sI35
F-0.79
sI36
F0.56
sI37
F-0.37
sI38
F0.9500000000000001
sI39
F-0.37
sI40
F-0.5
sI41
F0.84
sI42
F0.59
sI43
F0.62
sI44
F0.48
ssg5
I0
ssI48
(dp191
g3
(dp192
I0
F0.22
sI1
F0.39
sI2
F0.37
sI3
F-0.66
sI4
F-0.64
sI5
F-0.67
sI6
F0.52
sI7
F-0.42
sI8
F0.54
sI9
F-0.51
sI10
F0.33
sI11
F0.16
sI12
F0.47000000000000003
sI13
F-0.63
sI14
F0.54
sI15
F0.28
sI16
F0.22
sI17
F0.47000000000000003
sI18
F0.16
sI19
F-0.15
sI20
F-0.66
sI21
F0.58
sI22
F0.14
sI23
F-0.12
sI24
F0.91
sI25
F-0.68
sI26
F0.48
sI27
F0.87
sI28
F-0.61
sI29
F-0.97
sI30
F-0.4
sI31
F0.08
sI32
F0.43
sI33
F0.5700000000000001
sI34
F-0.31
sI35
F-0.01
sI36
F0.65
sI37
F0.08
sI38
F-0.49
sI39
F0.6900000000000001
sI40
F0.58
sI41
F0.23
sI42
F0.06
sI43
F-0.37
sI44
F0.36
ssg5
I0
ssI49
(dp193
g3
(dp194
I0
F0.48
sI1
F0.27
sI2
F0.15
sI3
F-0.89
sI4
F0.52
sI5
F0.16
sI6
F0.79
sI7
F0.71
sI8
F-0.87
sI9
F0.8300000000000001
sI10
F-0.23
sI11
F0.5
sI12
F-0.44
sI13
F0.9400000000000001
sI14
F-0.05
sI15
F0.38
sI16
F0.53
sI17
F0.3
sI18
F0.46
sI19
F-0.14
sI20
F0.24
sI21
F1.0
sI22
F-0.63
sI23
F-0.64
sI24
F-0.74
sI25
F-0.77
sI26
F-0.5700000000000001
sI27
F-0.9500000000000001
sI28
F0.06
sI29
F-0.58
sI30
F0.91
sI31
F0.03
sI32
F0.64
sI33
F-0.99
sI34
F-0.42
sI35
F0.52
sI36
F-0.03
sI37
F0.62
sI38
F-0.56
sI39
F-0.28
sI40
F-0.2
sI41
F0.15
sI42
F0.63
sI43
F-0.78
sI44
F-0.41000000000000003
ssg5
I0
ssI50
(dp195
g3
(dp196
I0
F0.1
sI1
F0.48
sI2
F0.17
sI3
F-0.72
sI4
F0.58
sI5
F0.34
sI6
F0.96
sI7
F-0.9400000000000001
sI8
F-0.63
sI9
F0.8
sI10
F0.35000000000000003
sI11
F0.67
sI12
F0.07
sI13
F-0.66
sI14
F0.0
sI15
F-0.33
sI16
F0.24
sI17
F-0.53
sI18
F-0.9500000000000001
sI19
F-0.22
sI20
F0.73
sI21
F-0.9500000000000001
sI22
F-0.1
sI23
F0.1
sI24
F-0.11
sI25
F-0.15
sI26
F-0.42
sI27
F0.01
sI28
F0.23
sI29
F0.56
sI30
F-0.29
sI31
F0.03
sI32
F0.17
sI33
F-0.67
sI34
F-0.8300000000000001
sI35
F-1.0
sI36
F-0.68
sI37
F0.36
sI38
F-0.45
sI39
F0.5
sI40
F0.45
sI41
F-0.33
sI42
F-0.59
sI43
F-0.23
sI44
F0.21
ssg5
I0
ssI51
(dp197
g3
(dp198
I0
F-0.01
sI1
F0.37
sI2
F-0.99
sI3
F-0.47000000000000003
sI4
F0.71
sI5
F-0.58
sI6
F0.41000000000000003
sI7
F-0.36
sI8
F-0.47000000000000003
sI9
F0.37
sI10
F0.96
sI11
F0.06
sI12
F0.9400000000000001
sI13
F-0.01
sI14
F0.46
sI15
F-0.62
sI16
F-0.5700000000000001
sI17
F-0.71
sI18
F-0.21
sI19
F0.5700000000000001
sI20
F0.48
sI21
F0.4
sI22
F-0.99
sI23
F-0.72
sI24
F0.77
sI25
F0.09
sI26
F-0.8300000000000001
sI27
F-0.14
sI28
F-0.42
sI29
F-0.91
sI30
F0.9400000000000001
sI31
F0.84
sI32
F0.74
sI33
F0.34
sI34
F0.77
sI35
F-0.09
sI36
F-0.74
sI37
F0.99
sI38
F-0.85
sI39
F0.21
sI40
F-0.09
sI41
F0.97
sI42
F0.89
sI43
F0.88
sI44
F0.43
ssg5
I0
ssI52
(dp199
g3
(dp200
I0
F0.88
sI1
F0.45
sI2
F0.91
sI3
F0.08
sI4
F0.53
sI5
F-0.12
sI6
F0.8
sI7
F0.64
sI8
F-0.03
sI9
F-0.42
sI10
F0.75
sI11
F0.32
sI12
F0.67
sI13
F-0.02
sI14
F-0.54
sI15
F0.21
sI16
F-0.37
sI17
F0.58
sI18
F0.13
sI19
F-0.74
sI20
F-0.03
sI21
F0.8300000000000001
sI22
F0.88
sI23
F-0.47000000000000003
sI24
F0.26
sI25
F0.63
sI26
F-0.67
sI27
F-0.89
sI28
F-0.34
sI29
F-0.39
sI30
F-0.11
sI31
F0.51
sI32
F-0.13
sI33
F-0.17
sI34
F0.9500000000000001
sI35
F0.59
sI36
F0.62
sI37
F-0.71
sI38
F0.99
sI39
F-0.53
sI40
F-0.18
sI41
F-0.72
sI42
F-0.37
sI43
F0.43
sI44
F-0.54
ssg5
I0
ssI53
(dp201
g3
(dp202
I0
F0.12
sI1
F-0.89
sI2
F-0.89
sI3
F0.4
sI4
F0.03
sI5
F0.09
sI6
F0.91
sI7
F-0.37
sI8
F0.73
sI9
F-0.24
sI10
F-0.42
sI11
F0.89
sI12
F0.53
sI13
F0.36
sI14
F0.45
sI15
F0.76
sI16
F0.27
sI17
F0.16
sI18
F-0.78
sI19
F0.36
sI20
F0.5
sI21
F0.59
sI22
F-0.65
sI23
F0.12
sI24
F0.08
sI25
F-0.79
sI26
F0.09
sI27
F-0.55
sI28
F-0.31
sI29
F-0.81
sI30
F0.88
sI31
F0.2
sI32
F0.55
sI33
F-0.92
sI34
F-0.97
sI35
F0.79
sI36
F-0.99
sI37
F0.45
sI38
F0.72
sI39
F-0.8
sI40
F-0.48
sI41
F-0.39
sI42
F-0.04
sI43
F-0.51
sI44
F-0.13
ssg5
I0
ssI54
(dp203
g3
(dp204
I0
F0.28
sI1
F-0.46
sI2
F0.2
sI3
F-0.35000000000000003
sI4
F0.34
sI5
F-0.21
sI6
F0.44
sI7
F0.67
sI8
F0.25
sI9
F0.7000000000000001
sI10
F-0.36
sI11
F-0.02
sI12
F-0.02
sI13
F0.66
sI14
F0.78
sI15
F0.32
sI16
F0.25
sI17
F0.34
sI18
F0.84
sI19
F0.05
sI20
F0.34
sI21
F0.49
sI22
F-0.81
sI23
F-0.66
sI24
F-0.5700000000000001
sI25
F-0.26
sI26
F0.9
sI27
F0.45
sI28
F0.43
sI29
F-0.77
sI30
F-0.65
sI31
F0.46
sI32
F0.23
sI33
F0.05
sI34
F0.24
sI35
F0.9
sI36
F-0.33
sI37
F-0.34
sI38
F0.11
sI39
F0.86
sI40
F0.96
sI41
F-0.61
sI42
F0.23
sI43
F0.11
sI44
F0.52
ssg5
I0
ssI55
(dp205
g3
(dp206
I0
F0.18
sI1
F-0.99
sI2
F0.92
sI3
F-0.29
sI4
F0.72
sI5
F0.15
sI6
F0.79
sI7
F-0.61
sI8
F0.08
sI9
F-0.9400000000000001
sI10
F0.6900000000000001
sI11
F-0.55
sI12
F-0.47000000000000003
sI13
F-0.9500000000000001
sI14
F0.09
sI15
F-0.08
sI16
F0.29
sI17
F0.47000000000000003
sI18
F-0.36
sI19
F0.45
sI20
F0.81
sI21
F0.23
sI22
F0.91
sI23
F0.12
sI24
F-0.36
sI25
F-0.8200000000000001
sI26
F-0.9
sI27
F0.58
sI28
F-0.15
sI29
F-0.5700000000000001
sI30
F-0.8
sI31
F-0.68
sI32
F0.54
sI33
F-0.91
sI34
F0.53
sI35
F-0.77
sI36
F-0.21
sI37
F-1.0
sI38
F0.28
sI39
F-0.71
sI40
F0.04
sI41
F0.25
sI42
F0.16
sI43
F-0.96
sI44
F0.6900000000000001
ssg5
I0
ssI56
(dp207
g3
(dp208
I0
F0.9
sI1
F0.44
sI2
F0.59
sI3
F-0.5
sI4
F0.66
sI5
F-0.27
sI6
F0.73
sI7
F-0.46
sI8
F-0.99
sI9
F0.38
sI10
F0.41000000000000003
sI11
F-0.7000000000000001
sI12
F0.3
sI13
F0.5
sI14
F-0.38
sI15
F0.25
sI16
F-0.37
sI17
F-0.56
sI18
F-0.97
sI19
F-0.08
sI20
F0.51
sI21
F0.34
sI22
F0.32
sI23
F-0.5700000000000001
sI24
F-0.45
sI25
F0.26
sI26
F-0.16
sI27
F0.4
sI28
F-0.55
sI29
F-0.05
sI30
F0.43
sI31
F-0.45
sI32
F0.71
sI33
F-0.96
sI34
F0.41000000000000003
sI35
F0.03
sI36
F-0.43
sI37
F-0.6900000000000001
sI38
F0.19
sI39
F-0.44
sI40
F0.47000000000000003
sI41
F-0.93
sI42
F-0.48
sI43
F0.0
sI44
F-0.37
ssg5
I0
ssI57
(dp209
g3
(dp210
I0
F0.04
sI1
F-0.01
sI2
F-0.16
sI3
F0.15
sI4
F0.07
sI5
F-0.35000000000000003
sI6
F0.77
sI7
F-0.15
sI8
F0.5700000000000001
sI9
F0.3
sI10
F0.41000000000000003
sI11
F0.02
sI12
F-0.06
sI13
F0.25
sI14
F0.16
sI15
F0.9400000000000001
sI16
F-0.9
sI17
F-0.02
sI18
F0.9
sI19
F0.11
sI20
F0.85
sI21
F-0.29
sI22
F-0.73
sI23
F-0.34
sI24
F-0.29
sI25
F0.0
sI26
F0.98
sI27
F0.9
sI28
F-0.72
sI29
F0.34
sI30
F-0.04
sI31
F-0.92
sI32
F-0.91
sI33
F0.91
sI34
F-0.51
sI35
F-0.96
sI36
F-0.46
sI37
F-0.66
sI38
F0.76
sI39
F-0.12
sI40
F0.8300000000000001
sI41
F0.9400000000000001
sI42
F-0.6
sI43
F-0.68
sI44
F-0.37
ssg5
I0
ssI58
(dp211
g3
(dp212
I0
F-0.96
sI1
F0.85
sI2
F0.86
sI3
F-0.85
sI4
F-0.05
sI5
F-0.16
sI6
F-0.45
sI7
F0.5700000000000001
sI8
F0.9400000000000001
sI9
F-0.23
sI10
F-0.7000000000000001
sI11
F-0.71
sI12
F-0.99
sI13
F-0.4
sI14
F0.28
sI15
F-0.46
sI16
F-0.84
sI17
F-0.34
sI18
F0.9400000000000001
sI19
F0.74
sI20
F-0.9400000000000001
sI21
F-0.28
sI22
F-0.62
sI23
F0.77
sI24
F0.59
sI25
F-0.33
sI26
F-0.98
sI27
F-0.5700000000000001
sI28
F-0.93
sI29
F-0.16
sI30
F-0.74
sI31
F-0.21
sI32
F0.07
sI33
F-0.52
sI34
F0.53
sI35
F0.37
sI36
F-0.48
sI37
F0.68
sI38
F-0.8
sI39
F0.4
sI40
F-0.99
sI41
F0.67
sI42
F-0.15
sI43
F-0.92
sI44
F0.16
ssg5
I0
ssI59
(dp213
g3
(dp214
I0
F-0.76
sI1
F0.26
sI2
F-0.26
sI3
F-0.03
sI4
F0.99
sI5
F-0.49
sI6
F0.06
sI7
F-0.6900000000000001
sI8
F0.63
sI9
F-0.62
sI10
F0.47000000000000003
sI11
F-0.78
sI12
F-0.02
sI13
F0.31
sI14
F0.68
sI15
F-0.45
sI16
F0.75
sI17
F0.65
sI18
F-0.9400000000000001
sI19
F0.6900000000000001
sI20
F0.98
sI21
F0.36
sI22
F0.87
sI23
F0.47000000000000003
sI24
F0.75
sI25
F0.9500000000000001
sI26
F-0.26
sI27
F-0.28
sI28
F0.53
sI29
F0.35000000000000003
sI30
F-0.33
sI31
F0.51
sI32
F-0.23
sI33
F0.37
sI34
F0.2
sI35
F-0.09
sI36
F0.35000000000000003
sI37
F0.08
sI38
F0.99
sI39
F-0.64
sI40
F0.52
sI41
F0.88
sI42
F0.31
sI43
F0.46
sI44
F-0.19
ssg5
I0
ssI60
(dp215
g3
(dp216
I0
F-0.47000000000000003
sI1
F0.07
sI2
F-0.12
sI3
F0.33
sI4
F0.41000000000000003
sI5
F-0.34
sI6
F0.89
sI7
F0.8200000000000001
sI8
F-0.7000000000000001
sI9
F-0.04
sI10
F-0.48
sI11
F0.65
sI12
F0.7000000000000001
sI13
F0.91
sI14
F-0.87
sI15
F-0.19
sI16
F-0.39
sI17
F-0.08
sI18
F-0.77
sI19
F0.31
sI20
F-0.45
sI21
F0.4
sI22
F-0.75
sI23
F-0.59
sI24
F0.96
sI25
F-0.75
sI26
F-1.0
sI27
F-0.28
sI28
F0.9
sI29
F0.66
sI30
F0.38
sI31
F0.91
sI32
F-0.5700000000000001
sI33
F-0.91
sI34
F-0.8200000000000001
sI35
F0.29
sI36
F-0.73
sI37
F0.04
sI38
F0.38
sI39
F-0.65
sI40
F-0.13
sI41
F0.25
sI42
F0.07
sI43
F-0.9
sI44
F-0.9
ssg5
I0
ssI61
(dp217
g3
(dp218
I0
F-0.43
sI1
F0.26
sI2
F0.36
sI3
F-0.96
sI4
F-0.37
sI5
F0.64
sI6
F-0.08
sI7
F0.07
sI8
F-0.01
sI9
F0.08
sI10
F0.33
sI11
F-0.02
sI12
F-0.99
sI13
F0.84
sI14
F-0.92
sI15
F-0.41000000000000003
sI16
F0.51
sI17
F-0.87
sI18
F-0.81
sI19
F0.72
sI20
F0.8200000000000001
sI21
F-0.18
sI22
F0.96
sI23
F0.06
sI24
F-0.09
sI25
F-0.71
sI26
F0.58
sI27
F-0.86
sI28
F-0.87
sI29
F0.18
sI30
F0.86
sI31
F0.98
sI32
F0.18
sI33
F0.47000000000000003
sI34
F-0.5700000000000001
sI35
F0.45
sI36
F0.5700000000000001
sI37
F-0.25
sI38
F0.27
sI39
F-0.51
sI40
F0.44
sI41
F-0.49
sI42
F0.28
sI43
F0.98
sI44
F-0.11
ssg5
I0
ssI62
(dp219
g3
(dp220
I0
F0.59
sI1
F-0.09
sI2
F0.8200000000000001
sI3
F0.0
sI4
F0.63
sI5
F0.1
sI6
F-0.8300000000000001
sI7
F0.77
sI8
F0.11
sI9
F0.41000000000000003
sI10
F-0.98
sI11
F-0.15
sI12
F-0.92
sI13
F0.01
sI14
F0.53
sI15
F-0.66
sI16
F0.63
sI17
F-0.07
sI18
F0.39
sI19
F-0.53
sI20
F-0.41000000000000003
sI21
F-0.19
sI22
F0.93
sI23
F-0.8
sI24
F0.59
sI25
F0.48
sI26
F-0.26
sI27
F-0.17
sI28
F-0.87
sI29
F-0.86
sI30
F0.53
sI31
F-0.85
sI32
F0.05
sI33
F-0.68
sI34
F0.42
sI35
F0.63
sI36
F0.64
sI37
F0.22
sI38
F-0.13
sI39
F0.65
sI40
F-0.05
sI41
F0.18
sI42
F0.98
sI43
F-0.9400000000000001
sI44
F0.19
ssg5
I0
ssI63
(dp221
g3
(dp222
I0
F0.85
sI1
F0.45
sI2
F0.3
sI3
F-0.61
sI4
F-0.3
sI5
F-0.9400000000000001
sI6
F-0.8300000000000001
sI7
F-0.48
sI8
F0.86
sI9
F0.31
sI10
F-0.29
sI11
F0.32
sI12
F-0.9500000000000001
sI13
F-0.46
sI14
F-0.24
sI15
F-0.44
sI16
F0.6
sI17
F0.96
sI18
F0.26
sI19
F-0.9
sI20
F0.9400000000000001
sI21
F0.59
sI22
F0.05
sI23
F0.26
sI24
F0.12
sI25
F-0.51
sI26
F-0.06
sI27
F-0.61
sI28
F0.48
sI29
F0.28
sI30
F1.0
sI31
F0.23
sI32
F0.45
sI33
F-0.59
sI34
F-0.21
sI35
F0.06
sI36
F-0.41000000000000003
sI37
F-0.75
sI38
F0.1
sI39
F-0.18
sI40
F0.85
sI41
F-0.24
sI42
F-1.0
sI43
F-0.93
sI44
F-0.85
ssg5
I0
ssI64
(dp223
g3
(dp224
I0
F0.08
sI1
F0.47000000000000003
sI2
F-0.97
sI3
F0.0
sI4
F0.9500000000000001
sI5
F0.8
sI6
F0.42
sI7
F-0.55
sI8
F-0.13
sI9
F-0.72
sI10
F-0.8300000000000001
sI11
F-0.42
sI12
F0.64
sI13
F0.05
sI14
F0.68
sI15
F0.79
sI16
F-0.38
sI17
F0.41000000000000003
sI18
F0.92
sI19
F-0.03
sI20
F0.26
sI21
F-0.54
sI22
F0.41000000000000003
sI23
F-0.87
sI24
F0.22
sI25
F0.26
sI26
F0.77
sI27
F0.05
sI28
F0.54
sI29
F0.24
sI30
F-0.38
sI31
F0.54
sI32
F0.21
sI33
F-0.14
sI34
F0.85
sI35
F0.32
sI36
F-0.29
sI37
F-0.14
sI38
F0.8200000000000001
sI39
F0.8
sI40
F-0.7000000000000001
sI41
F0.8
sI42
F-0.58
sI43
F-0.74
sI44
F-0.79
ssg5
I0
ssI65
(dp225
g3
(dp226
I0
F0.21
sI1
F-0.8300000000000001
sI2
F-0.96
sI3
F-0.04
sI4
F-0.34
sI5
F-0.03
sI6
F0.37
sI7
F-0.24
sI8
F0.15
sI9
F-0.03
sI10
F0.59
sI11
F-0.29
sI12
F-0.97
sI13
F-0.13
sI14
F-0.76
sI15
F0.09
sI16
F0.61
sI17
F0.19
sI18
F1.0
sI19
F1.0
sI20
F-0.93
sI21
F0.9400000000000001
sI22
F-1.0
sI23
F0.22
sI24
F-0.4
sI25
F0.87
sI26
F-0.7000000000000001
sI27
F-0.99
sI28
F-1.0
sI29
F-0.49
sI30
F0.0
sI31
F0.9500000000000001
sI32
F0.75
sI33
F0.85
sI34
F0.68
sI35
F-0.63
sI36
F0.46
sI37
F0.52
sI38
F0.43
sI39
F-0.51
sI40
F-0.37
sI41
F0.49
sI42
F0.9
sI43
F-0.29
sI44
F-0.92
ssg5
I0
ssI66
(dp227
g3
(dp228
I0
F0.46
sI1
F-0.13
sI2
F0.72
sI3
F0.79
sI4
F-0.27
sI5
F0.23
sI6
F-0.93
sI7
F-0.9500000000000001
sI8
F0.45
sI9
F-0.93
sI10
F-0.6
sI11
F-0.31
sI12
F0.87
sI13
F0.5700000000000001
sI14
F0.58
sI15
F-0.98
sI16
F-0.7000000000000001
sI17
F-0.68
sI18
F0.03
sI19
F0.88
sI20
F0.68
sI21
F-1.0
sI22
F0.74
sI23
F0.16
sI24
F0.61
sI25
F-0.01
sI26
F-0.5
sI27
F-0.91
sI28
F0.55
sI29
F-0.9400000000000001
sI30
F-0.43
sI31
F0.6900000000000001
sI32
F0.98
sI33
F0.98
sI34
F-0.8300000000000001
sI35
F-0.15
sI36
F-0.65
sI37
F0.36
sI38
F-0.7000000000000001
sI39
F0.11
sI40
F-0.65
sI41
F0.02
sI42
F-0.13
sI43
F0.85
sI44
F-0.16
ssg5
I0
ssI67
(dp229
g3
(dp230
I0
F-0.33
sI1
F0.41000000000000003
sI2
F-0.5
sI3
F0.27
sI4
F-0.36
sI5
F-0.26
sI6
F0.04
sI7
F-0.9400000000000001
sI8
F-0.96
sI9
F-0.49
sI10
F-0.8300000000000001
sI11
F-0.53
sI12
F-0.12
sI13
F-0.07
sI14
F-0.9
sI15
F0.56
sI16
F0.15
sI17
F0.15
sI18
F-0.87
sI19
F-0.92
sI20
F0.11
sI21
F-0.9400000000000001
sI22
F-0.56
sI23
F-0.86
sI24
F-0.42
sI25
F-0.31
sI26
F-0.64
sI27
F0.44
sI28
F-0.6
sI29
F-0.59
sI30
F-0.48
sI31
F0.67
sI32
F0.2
sI33
F-0.96
sI34
F-0.13
sI35
F0.79
sI36
F-0.58
sI37
F0.87
sI38
F-0.84
sI39
F-0.52
sI40
F-0.85
sI41
F-0.28
sI42
F-0.34
sI43
F-0.66
sI44
F-0.26
ssg5
I0
ssI68
(dp231
g3
(dp232
I0
F0.87
sI1
F0.88
sI2
F-0.76
sI3
F0.44
sI4
F0.6900000000000001
sI5
F0.7000000000000001
sI6
F-0.52
sI7
F0.73
sI8
F0.01
sI9
F-0.35000000000000003
sI10
F0.47000000000000003
sI11
F0.25
sI12
F0.63
sI13
F-0.6900000000000001
sI14
F-0.52
sI15
F-0.7000000000000001
sI16
F0.66
sI17
F-0.11
sI18
F-0.54
sI19
F0.5700000000000001
sI20
F0.79
sI21
F-0.37
sI22
F0.41000000000000003
sI23
F0.34
sI24
F0.41000000000000003
sI25
F-0.41000000000000003
sI26
F-0.33
sI27
F0.8
sI28
F-0.86
sI29
F0.17
sI30
F-0.02
sI31
F0.25
sI32
F0.13
sI33
F-0.24
sI34
F-0.54
sI35
F-0.2
sI36
F-0.93
sI37
F-0.59
sI38
F0.46
sI39
F-0.4
sI40
F-0.91
sI41
F-0.5
sI42
F-0.63
sI43
F-0.26
sI44
F-0.54
ssg5
I0
ssI69
(dp233
g3
(dp234
I0
F0.08
sI1
F-0.42
sI2
F-0.59
sI3
F-0.25
sI4
F0.32
sI5
F0.34
sI6
F-0.42
sI7
F-0.31
sI8
F-0.49
sI9
F-0.33
sI10
F0.58
sI11
F0.45
sI12
F0.54
sI13
F0.15
sI14
F0.18
sI15
F0.9500000000000001
sI16
F-0.26
sI17
F0.26
sI18
F-0.1
sI19
F-0.24
sI20
F-0.23
sI21
F-0.89
sI22
F0.2
sI23
F-0.31
sI24
F-0.38
sI25
F-0.46
sI26
F1.0
sI27
F-0.47000000000000003
sI28
F-0.22
sI29
F0.18
sI30
F0.32
sI31
F-0.46
sI32
F0.5
sI33
F-0.31
sI34
F0.47000000000000003
sI35
F0.55
sI36
F0.39
sI37
F0.9500000000000001
sI38
F-0.28
sI39
F0.89
sI40
F-0.29
sI41
F-0.5700000000000001
sI42
F0.76
sI43
F-0.37
sI44
F0.48
ssg5
I0
ssI70
(dp235
g3
(dp236
I0
F0.97
sI1
F-0.15
sI2
F0.38
sI3
F0.46
sI4
F0.99
sI5
F-0.97
sI6
F0.08
sI7
F0.16
sI8
F0.84
sI9
F0.8300000000000001
sI10
F-0.16
sI11
F0.89
sI12
F-0.68
sI13
F-0.17
sI14
F-1.0
sI15
F0.29
sI16
F-0.44
sI17
F0.61
sI18
F-0.96
sI19
F-0.8200000000000001
sI20
F-0.74
sI21
F0.73
sI22
F0.81
sI23
F-0.8200000000000001
sI24
F0.24
sI25
F0.88
sI26
F0.88
sI27
F0.8300000000000001
sI28
F0.52
sI29
F0.58
sI30
F-0.88
sI31
F0.26
sI32
F0.78
sI33
F-0.99
sI34
F-0.22
sI35
F-0.49
sI36
F-0.9400000000000001
sI37
F-0.23
sI38
F0.4
sI39
F-0.5700000000000001
sI40
F-0.88
sI41
F0.66
sI42
F0.73
sI43
F0.37
sI44
F0.17
ssg5
I0
ssI71
(dp237
g3
(dp238
I0
F-0.6900000000000001
sI1
F0.9
sI2
F-0.48
sI3
F-0.8
sI4
F-0.9
sI5
F0.79
sI6
F0.5700000000000001
sI7
F0.74
sI8
F0.45
sI9
F0.89
sI10
F-0.18
sI11
F0.29
sI12
F0.6
sI13
F0.9500000000000001
sI14
F0.0
sI15
F0.29
sI16
F-0.97
sI17
F-0.49
sI18
F-0.39
sI19
F-0.22
sI20
F0.72
sI21
F-0.72
sI22
F0.33
sI23
F0.42
sI24
F0.64
sI25
F-0.68
sI26
F-0.86
sI27
F-0.43
sI28
F-0.73
sI29
F0.9
sI30
F0.79
sI31
F-0.44
sI32
F-0.02
sI33
F0.5700000000000001
sI34
F0.72
sI35
F-1.0
sI36
F0.18
sI37
F-0.66
sI38
F-0.79
sI39
F0.34
sI40
F0.45
sI41
F-0.43
sI42
F-0.09
sI43
F0.45
sI44
F-0.62
ssg5
I0
ssI72
(dp239
g3
(dp240
I0
F0.92
sI1
F-0.39
sI2
F-0.84
sI3
F-0.8300000000000001
sI4
F0.06
sI5
F-0.91
sI6
F-0.67
sI7
F0.9500000000000001
sI8
F0.07
sI9
F-0.54
sI10
F-0.37
sI11
F-0.84
sI12
F0.6900000000000001
sI13
F-0.08
sI14
F-0.6
sI15
F0.62
sI16
F-0.51
sI17
F-0.15
sI18
F0.6900000000000001
sI19
F-0.34
sI20
F0.54
sI21
F0.88
sI22
F0.8200000000000001
sI23
F0.89
sI24
F-0.34
sI25
F0.28
sI26
F-0.76
sI27
F0.99
sI28
F-0.89
sI29
F-0.99
sI30
F0.88
sI31
F-0.74
sI32
F-0.23
sI33
F-0.2
sI34
F-0.8
sI35
F-0.44
sI36
F0.5700000000000001
sI37
F0.98
sI38
F0.61
sI39
F0.62
sI40
F-0.73
sI41
F-0.61
sI42
F0.56
sI43
F-0.29
sI44
F-0.64
ssg5
I0
ssI73
(dp241
g3
(dp242
I0
F0.8
sI1
F-0.38
sI2
F0.34
sI3
F0.28
sI4
F-0.36
sI5
F-0.29
sI6
F0.1
sI7
F0.24
sI8
F0.8
sI9
F-0.24
sI10
F0.77
sI11
F0.38
sI12
F-0.77
sI13
F0.13
sI14
F0.59
sI15
F-0.16
sI16
F-0.27
sI17
F-0.39
sI18
F0.66
sI19
F-0.18
sI20
F-0.48
sI21
F0.44
sI22
F-0.81
sI23
F0.37
sI24
F-0.62
sI25
F-0.88
sI26
F-0.08
sI27
F-0.14
sI28
F-0.18
sI29
F0.89
sI30
F-0.56
sI31
F0.65
sI32
F-0.61
sI33
F0.16
sI34
F-0.37
sI35
F-0.58
sI36
F-0.96
sI37
F-0.11
sI38
F-0.59
sI39
F-0.91
sI40
F-0.91
sI41
F0.36
sI42
F0.9400000000000001
sI43
F-0.66
sI44
F0.7000000000000001
ssg5
I0
ssI74
(dp243
g3
(dp244
I0
F0.04
sI1
F0.71
sI2
F0.33
sI3
F0.01
sI4
F-0.03
sI5
F-0.17
sI6
F0.73
sI7
F-0.3
sI8
F-0.43
sI9
F-0.98
sI10
F-0.5
sI11
F0.89
sI12
F0.86
sI13
F0.19
sI14
F-0.93
sI15
F-0.52
sI16
F0.34
sI17
F0.88
sI18
F-0.59
sI19
F-0.49
sI20
F0.29
sI21
F-0.77
sI22
F0.44
sI23
F0.32
sI24
F0.28
sI25
F0.4
sI26
F-0.04
sI27
F0.77
sI28
F0.64
sI29
F-0.55
sI30
F0.75
sI31
F0.97
sI32
F0.49
sI33
F-0.59
sI34
F-0.58
sI35
F0.08
sI36
F-0.5700000000000001
sI37
F-0.49
sI38
F-0.49
sI39
F-0.79
sI40
F0.89
sI41
F0.54
sI42
F-0.6
sI43
F0.96
sI44
F-0.12
ssg5
I0
ssI75
(dp245
g3
(dp246
I0
F0.96
sI1
F-0.32
sI2
F-0.29
sI3
F-0.8300000000000001
sI4
F-0.8
sI5
F-0.44
sI6
F-0.13
sI7
F-0.9400000000000001
sI8
F-0.74
sI9
F0.63
sI10
F-0.24
sI11
F-0.1
sI12
F0.0
sI13
F0.4
sI14
F0.85
sI15
F0.42
sI16
F-0.39
sI17
F0.24
sI18
F0.36
sI19
F0.86
sI20
F0.81
sI21
F0.79
sI22
F-0.91
sI23
F-0.37
sI24
F-0.23
sI25
F0.8300000000000001
sI26
F-0.38
sI27
F0.43
sI28
F0.96
sI29
F0.89
sI30
F-0.84
sI31
F0.32
sI32
F-0.89
sI33
F1.0
sI34
F0.2
sI35
F0.29
sI36
F-0.88
sI37
F0.16
sI38
F0.37
sI39
F0.28
sI40
F0.43
sI41
F0.9
sI42
F-0.79
sI43
F0.74
sI44
F-0.58
ssg5
I0
ssI76
(dp247
g3
(dp248
I0
F0.62
sI1
F0.38
sI2
F-0.3
sI3
F0.1
sI4
F0.06
sI5
F0.24
sI6
F0.06
sI7
F-0.99
sI8
F0.14
sI9
F0.47000000000000003
sI10
F0.34
sI11
F-0.06
sI12
F-0.63
sI13
F-0.14
sI14
F-0.99
sI15
F-0.5
sI16
F0.96
sI17
F-0.02
sI18
F-0.5
sI19
F0.18
sI20
F-0.88
sI21
F0.46
sI22
F-0.64
sI23
F0.24
sI24
F-0.29
sI25
F-0.28
sI26
F0.63
sI27
F-0.11
sI28
F0.51
sI29
F-0.37
sI30
F-0.15
sI31
F0.97
sI32
F0.06
sI33
F-0.46
sI34
F0.63
sI35
F-0.77
sI36
F0.05
sI37
F-0.08
sI38
F0.61
sI39
F-0.72
sI40
F0.47000000000000003
sI41
F-0.97
sI42
F-0.09
sI43
F-0.26
sI44
F0.42
ssg5
I0
ssI77
(dp249
g3
(dp250
I0
F-0.1
sI1
F-0.89
sI2
F0.68
sI3
F0.14
sI4
F-0.73
sI5
F-0.55
sI6
F-0.23
sI7
F0.3
sI8
F-0.43
sI9
F0.15
sI10
F0.5700000000000001
sI11
F-0.3
sI12
F-0.73
sI13
F0.62
sI14
F-0.78
sI15
F-0.31
sI16
F0.85
sI17
F0.44
sI18
F0.21
sI19
F-0.72
sI20
F-0.46
sI21
F-0.5700000000000001
sI22
F0.58
sI23
F-0.99
sI24
F-0.98
sI25
F0.89
sI26
F0.42
sI27
F0.23
sI28
F-0.8300000000000001
sI29
F-0.54
sI30
F0.79
sI31
F0.71
sI32
F0.33
sI33
F-0.2
sI34
F0.77
sI35
F0.6900000000000001
sI36
F-0.65
sI37
F0.32
sI38
F0.4
sI39
F0.61
sI40
F-0.53
sI41
F-0.49
sI42
F0.75
sI43
F0.01
sI44
F-0.66
ssg5
I0
ssI78
(dp251
g3
(dp252
I0
F0.38
sI1
F-0.35000000000000003
sI2
F0.04
sI3
F-0.31
sI4
F0.06
sI5
F-0.54
sI6
F-0.97
sI7
F0.6
sI8
F-0.03
sI9
F-0.39
sI10
F-0.38
sI11
F-0.44
sI12
F-0.81
sI13
F-0.61
sI14
F-0.67
sI15
F0.36
sI16
F0.51
sI17
F0.88
sI18
F-0.5
sI19
F-0.12
sI20
F-0.73
sI21
F-0.36
sI22
F-0.28
sI23
F0.5700000000000001
sI24
F-0.79
sI25
F-0.68
sI26
F0.4
sI27
F-0.71
sI28
F0.33
sI29
F-0.02
sI30
F0.81
sI31
F0.35000000000000003
sI32
F0.19
sI33
F0.14
sI34
F0.65
sI35
F-0.8200000000000001
sI36
F1.0
sI37
F0.68
sI38
F0.74
sI39
F-0.4
sI40
F-0.84
sI41
F-0.67
sI42
F0.55
sI43
F-1.0
sI44
F-0.2
ssg5
I0
ssI79
(dp253
g3
(dp254
I0
F0.45
sI1
F-0.75
sI2
F-0.52
sI3
F-0.6
sI4
F0.1
sI5
F-0.51
sI6
F0.44
sI7
F-0.42
sI8
F-0.8
sI9
F0.99
sI10
F-0.67
sI11
F-0.91
sI12
F-0.53
sI13
F0.65
sI14
F-0.23
sI15
F0.59
sI16
F-0.17
sI17
F-0.05
sI18
F-0.27
sI19
F0.58
sI20
F-0.11
sI21
F-0.04
sI22
F0.04
sI23
F0.38
sI24
F0.92
sI25
F0.8300000000000001
sI26
F-0.49
sI27
F-0.35000000000000003
sI28
F0.23
sI29
F0.84
sI30
F0.58
sI31
F0.04
sI32
F0.05
sI33
F-0.48
sI34
F-0.74
sI35
F-0.68
sI36
F0.9500000000000001
sI37
F0.98
sI38
F-0.97
sI39
F-0.26
sI40
F-0.66
sI41
F-0.81
sI42
F-0.91
sI43
F-0.34
sI44
F0.9
ssg5
I0
ssI80
(dp255
g3
(dp256
I0
F-0.35000000000000003
sI1
F0.47000000000000003
sI2
F0.73
sI3
F0.36
sI4
F-0.59
sI5
F-0.8
sI6
F-0.11
sI7
F0.98
sI8
F0.58
sI9
F0.11
sI10
F-0.3
sI11
F-0.81
sI12
F0.91
sI13
F1.0
sI14
F0.32
sI15
F0.52
sI16
F0.58
sI17
F0.8200000000000001
sI18
F0.37
sI19
F0.23
sI20
F-0.99
sI21
F0.9
sI22
F1.0
sI23
F0.42
sI24
F-0.76
sI25
F0.44
sI26
F0.8200000000000001
sI27
F0.37
sI28
F0.19
sI29
F-0.78
sI30
F0.26
sI31
F-0.86
sI32
F0.39
sI33
F1.0
sI34
F0.88
sI35
F0.37
sI36
F0.9500000000000001
sI37
F-0.49
sI38
F-0.98
sI39
F-0.93
sI40
F-0.6
sI41
F-0.04
sI42
F0.22
sI43
F0.35000000000000003
sI44
F0.74
ssg5
I0
ssI81
(dp257
g3
(dp258
I0
F0.21
sI1
F0.55
sI2
F-0.98
sI3
F0.01
sI4
F-0.59
sI5
F0.04
sI6
F-0.96
sI7
F-0.02
sI8
F0.18
sI9
F-0.99
sI10
F-0.15
sI11
F0.42
sI12
F-0.9500000000000001
sI13
F0.33
sI14
F-0.28
sI15
F-0.79
sI16
F-0.99
sI17
F-0.62
sI18
F0.47000000000000003
sI19
F-0.35000000000000003
sI20
F-0.24
sI21
F-0.41000000000000003
sI22
F0.12
sI23
F0.26
sI24
F0.33
sI25
F-0.29
sI26
F0.55
sI27
F-0.76
sI28
F0.19
sI29
F-0.3
sI30
F0.91
sI31
F-0.96
sI32
F0.71
sI33
F-0.75
sI34
F0.38
sI35
F0.97
sI36
F0.78
sI37
F0.97
sI38
F0.86
sI39
F-0.84
sI40
F0.26
sI41
F0.98
sI42
F0.49
sI43
F0.55
sI44
F-0.29
ssg5
I0
ssI82
(dp259
g3
(dp260
I0
F-0.78
sI1
F-0.08
sI2
F0.44
sI3
F-0.3
sI4
F-0.48
sI5
F0.42
sI6
F0.27
sI7
F-0.63
sI8
F-0.97
sI9
F0.65
sI10
F0.55
sI11
F0.81
sI12
F-0.32
sI13
F-0.67
sI14
F-0.48
sI15
F0.54
sI16
F-0.33
sI17
F-0.06
sI18
F-0.15
sI19
F-0.51
sI20
F0.16
sI21
F-0.35000000000000003
sI22
F0.08
sI23
F0.19
sI24
F0.32
sI25
F0.15
sI26
F-0.9
sI27
F0.2
sI28
F0.2
sI29
F-0.65
sI30
F-0.56
sI31
F0.73
sI32
F0.04
sI33
F0.06
sI34
F-0.78
sI35
F0.53
sI36
F-0.6900000000000001
sI37
F-0.48
sI38
F-0.55
sI39
F-0.74
sI40
F0.26
sI41
F-0.93
sI42
F-0.03
sI43
F0.61
sI44
F0.81
ssg5
I0
ssI83
(dp261
g3
(dp262
I0
F0.38
sI1
F-0.15
sI2
F0.52
sI3
F0.36
sI4
F-0.25
sI5
F-0.08
sI6
F-0.47000000000000003
sI7
F0.86
sI8
F-0.22
sI9
F-0.54
sI10
F-0.87
sI11
F0.3
sI12
F-0.6
sI13
F0.78
sI14
F-0.29
sI15
F-0.81
sI16
F1.0
sI17
F-0.3
sI18
F0.63
sI19
F0.04
sI20
F-0.42
sI21
F-0.44
sI22
F-0.42
sI23
F-0.27
sI24
F-0.89
sI25
F0.52
sI26
F-0.85
sI27
F-0.78
sI28
F-0.21
sI29
F0.19
sI30
F-0.06
sI31
F0.97
sI32
F-0.41000000000000003
sI33
F-0.97
sI34
F0.56
sI35
F-0.7000000000000001
sI36
F-0.9400000000000001
sI37
F0.23
sI38
F-0.41000000000000003
sI39
F-0.89
sI40
F0.98
sI41
F0.3
sI42
F-0.36
sI43
F-0.63
sI44
F0.74
ssg5
I0
ssI84
(dp263
g3
(dp264
I0
F0.47000000000000003
sI1
F0.89
sI2
F-0.35000000000000003
sI3
F0.87
sI4
F-0.68
sI5
F-0.97
sI6
F-0.74
sI7
F-0.6900000000000001
sI8
F0.62
sI9
F0.17
sI10
F-0.44
sI11
F0.01
sI12
F-0.64
sI13
F-0.02
sI14
F-0.35000000000000003
sI15
F-0.72
sI16
F-0.65
sI17
F-0.7000000000000001
sI18
F-0.24
sI19
F0.55
sI20
F-0.8200000000000001
sI21
F-0.27
sI22
F-0.24
sI23
F0.33
sI24
F0.9
sI25
F0.78
sI26
F-0.37
sI27
F0.4
sI28
F0.9400000000000001
sI29
F0.37
sI30
F0.73
sI31
F0.78
sI32
F0.61
sI33
F-0.1
sI34
F-0.74
sI35
F0.46
sI36
F0.37
sI37
F0.96
sI38
F1.0
sI39
F-0.34
sI40
F-0.27
sI41
F-0.65
sI42
F0.52
sI43
F0.7000000000000001
sI44
F-0.29
ssg5
I0
ssI85
(dp265
g3
(dp266
I0
F-0.43
sI1
F-0.92
sI2
F-0.25
sI3
F0.88
sI4
F-0.73
sI5
F0.02
sI6
F-0.36
sI7
F-0.04
sI8
F-0.7000000000000001
sI9
F0.62
sI10
F-0.68
sI11
F-0.36
sI12
F-0.92
sI13
F-0.62
sI14
F-0.81
sI15
F0.56
sI16
F-0.14
sI17
F0.5700000000000001
sI18
F-0.68
sI19
F0.55
sI20
F-0.08
sI21
F-0.11
sI22
F0.12
sI23
F0.2
sI24
F-0.58
sI25
F0.71
sI26
F-0.46
sI27
F-0.13
sI28
F0.96
sI29
F0.65
sI30
F-0.45
sI31
F-0.15
sI32
F0.08
sI33
F-0.45
sI34
F0.81
sI35
F-0.49
sI36
F0.93
sI37
F-0.26
sI38
F-0.96
sI39
F-0.77
sI40
F-0.23
sI41
F-0.16
sI42
F-0.86
sI43
F0.6900000000000001
sI44
F0.09
ssg5
I0
ssI86
(dp267
g3
(dp268
I0
F0.79
sI1
F-1.0
sI2
F0.97
sI3
F-0.9
sI4
F-0.5700000000000001
sI5
F0.15
sI6
F0.19
sI7
F0.43
sI8
F0.8200000000000001
sI9
F0.78
sI10
F0.39
sI11
F-0.5700000000000001
sI12
F0.93
sI13
F-0.53
sI14
F-0.38
sI15
F0.64
sI16
F0.34
sI17
F0.16
sI18
F0.2
sI19
F-0.08
sI20
F-0.27
sI21
F0.3
sI22
F-0.3
sI23
F-0.35000000000000003
sI24
F-0.92
sI25
F0.2
sI26
F0.67
sI27
F0.01
sI28
F-0.45
sI29
F0.25
sI30
F0.37
sI31
F0.9500000000000001
sI32
F0.37
sI33
F-0.8200000000000001
sI34
F-0.39
sI35
F-0.32
sI36
F0.55
sI37
F-0.13
sI38
F-0.3
sI39
F0.6
sI40
F-0.9400000000000001
sI41
F-0.35000000000000003
sI42
F-0.3
sI43
F0.63
sI44
F-0.02
ssg5
I0
ssI87
(dp269
g3
(dp270
I0
F0.84
sI1
F0.41000000000000003
sI2
F-0.26
sI3
F-0.5700000000000001
sI4
F0.78
sI5
F0.2
sI6
F-0.15
sI7
F-0.31
sI8
F-0.44
sI9
F-0.84
sI10
F-0.79
sI11
F-0.31
sI12
F-0.08
sI13
F-0.55
sI14
F0.58
sI15
F-0.1
sI16
F-0.23
sI17
F-0.93
sI18
F-0.22
sI19
F0.8200000000000001
sI20
F0.74
sI21
F0.58
sI22
F-0.03
sI23
F0.43
sI24
F-0.06
sI25
F0.15
sI26
F0.01
sI27
F0.32
sI28
F0.74
sI29
F0.41000000000000003
sI30
F-0.13
sI31
F-0.88
sI32
F-0.24
sI33
F-0.75
sI34
F0.66
sI35
F-0.19
sI36
F0.41000000000000003
sI37
F0.79
sI38
F0.2
sI39
F0.7000000000000001
sI40
F0.86
sI41
F0.21
sI42
F-0.26
sI43
F0.97
sI44
F0.71
ssg5
I0
ssI88
(dp271
g3
(dp272
I0
F-0.19
sI1
F0.1
sI2
F0.41000000000000003
sI3
F-0.96
sI4
F0.14
sI5
F0.03
sI6
F0.88
sI7
F0.45
sI8
F0.03
sI9
F-0.8300000000000001
sI10
F-0.81
sI11
F-0.52
sI12
F-0.8
sI13
F-0.29
sI14
F-0.86
sI15
F0.44
sI16
F0.67
sI17
F0.16
sI18
F-0.43
sI19
F-0.72
sI20
F0.78
sI21
F0.91
sI22
F-0.25
sI23
F0.47000000000000003
sI24
F-0.45
sI25
F-0.99
sI26
F0.2
sI27
F0.76
sI28
F0.3
sI29
F0.8
sI30
F0.4
sI31
F0.18
sI32
F0.74
sI33
F0.78
sI34
F-0.14
sI35
F-0.07
sI36
F0.52
sI37
F-0.28
sI38
F0.87
sI39
F-0.23
sI40
F0.86
sI41
F0.75
sI42
F-0.33
sI43
F0.76
sI44
F-0.84
ssg5
I0
ssI89
(dp273
g3
(dp274
I0
F-0.9
sI1
F0.93
sI2
F-0.1
sI3
F0.84
sI4
F-1.0
sI5
F0.9
sI6
F-0.21
sI7
F-1.0
sI8
F-0.25
sI9
F-0.9500000000000001
sI10
F0.51
sI11
F-0.61
sI12
F-0.62
sI13
F-0.02
sI14
F-0.56
sI15
F-0.6
sI16
F-0.66
sI17
F-0.39
sI18
F0.67
sI19
F-0.66
sI20
F0.75
sI21
F0.51
sI22
F-0.9
sI23
F0.32
sI24
F0.32
sI25
F0.61
sI26
F0.37
sI27
F0.55
sI28
F-0.65
sI29
F0.91
sI30
F-0.03
sI31
F-0.2
sI32
F-0.09
sI33
F0.31
sI34
F-0.91
sI35
F0.33
sI36
F0.32
sI37
F-0.02
sI38
F0.38
sI39
F0.31
sI40
F-0.72
sI41
F-0.5700000000000001
sI42
F0.9400000000000001
sI43
F-0.48
sI44
F-0.99
ssg5
I0
ssI90
(dp275
g3
(dp276
I0
F-0.66
sI1
F0.3
sI2
F0.98
sI3
F-0.12
sI4
F-0.18
sI5
F-0.43
sI6
F-0.52
sI7
F-0.3
sI8
F-0.81
sI9
F0.84
sI10
F-0.42
sI11
F-0.04
sI12
F-0.06
sI13
F0.77
sI14
F0.65
sI15
F0.6900000000000001
sI16
F0.9500000000000001
sI17
F0.87
sI18
F0.56
sI19
F-0.55
sI20
F0.04
sI21
F-0.36
sI22
F0.66
sI23
F-0.58
sI24
F0.04
sI25
F-0.24
sI26
F0.68
sI27
F0.99
sI28
F-0.86
sI29
F-0.68
sI30
F0.34
sI31
F-0.93
sI32
F-0.32
sI33
F0.84
sI34
F0.56
sI35
F-0.38
sI36
F-0.45
sI37
F-0.99
sI38
F0.25
sI39
F-0.85
sI40
F-0.5
sI41
F0.44
sI42
F0.77
sI43
F0.55
sI44
F0.3
ssg5
I0
ssI91
(dp277
g3
(dp278
I0
F0.9500000000000001
sI1
F-0.54
sI2
F0.26
sI3
F-0.22
sI4
F-0.86
sI5
F0.73
sI6
F0.35000000000000003
sI7
F0.0
sI8
F0.02
sI9
F0.14
sI10
F0.08
sI11
F-0.19
sI12
F-0.47000000000000003
sI13
F0.6900000000000001
sI14
F0.43
sI15
F-0.76
sI16
F0.43
sI17
F-0.89
sI18
F-0.61
sI19
F0.28
sI20
F-0.08
sI21
F-0.16
sI22
F0.24
sI23
F0.98
sI24
F-0.31
sI25
F0.36
sI26
F0.85
sI27
F-0.49
sI28
F0.73
sI29
F0.43
sI30
F-0.93
sI31
F0.0
sI32
F0.85
sI33
F0.67
sI34
F0.9400000000000001
sI35
F0.18
sI36
F0.21
sI37
F-0.84
sI38
F-0.12
sI39
F-0.05
sI40
F0.7000000000000001
sI41
F0.66
sI42
F-0.53
sI43
F-0.02
sI44
F0.18
ssg5
I0
ssI92
(dp279
g3
(dp280
I0
F0.77
sI1
F0.53
sI2
F0.73
sI3
F0.15
sI4
F-0.15
sI5
F0.74
sI6
F0.3
sI7
F-0.71
sI8
F-0.6
sI9
F-0.05
sI10
F-0.97
sI11
F0.18
sI12
F0.66
sI13
F0.6900000000000001
sI14
F0.84
sI15
F0.66
sI16
F-0.07
sI17
F0.18
sI18
F0.66
sI19
F0.61
sI20
F-0.59
sI21
F0.79
sI22
F0.8200000000000001
sI23
F-0.55
sI24
F-0.4
sI25
F-0.38
sI26
F0.55
sI27
F0.45
sI28
F-0.08
sI29
F-0.29
sI30
F0.32
sI31
F-0.3
sI32
F0.38
sI33
F0.46
sI34
F0.01
sI35
F0.11
sI36
F-0.67
sI37
F0.02
sI38
F-0.36
sI39
F0.07
sI40
F0.97
sI41
F-0.09
sI42
F-0.35000000000000003
sI43
F-0.3
sI44
F-0.15
ssg5
I0
ssI93
(dp281
g3
(dp282
I0
F-0.7000000000000001
sI1
F0.89
sI2
F0.34
sI3
F-0.47000000000000003
sI4
F0.07
sI5
F0.32
sI6
F-0.45
sI7
F-0.9400000000000001
sI8
F-0.27
sI9
F0.8
sI10
F0.88
sI11
F-0.87
sI12
F-0.05
sI13
F0.05
sI14
F-0.88
sI15
F0.14
sI16
F-0.53
sI17
F0.18
sI18
F-0.51
sI19
F0.02
sI20
F0.87
sI21
F-0.51
sI22
F0.5
sI23
F0.02
sI24
F0.86
sI25
F0.91
sI26
F-0.15
sI27
F0.11
sI28
F-0.88
sI29
F-0.55
sI30
F-0.88
sI31
F0.91
sI32
F-0.5700000000000001
sI33
F-0.79
sI34
F0.66
sI35
F-0.45
sI36
F-0.48
sI37
F-0.78
sI38
F-0.05
sI39
F-0.67
sI40
F-0.25
sI41
F0.26
sI42
F0.89
sI43
F0.23
sI44
F0.58
ssg5
I0
ssI94
(dp283
g3
(dp284
I0
F-0.6900000000000001
sI1
F-0.96
sI2
F0.14
sI3
F0.22
sI4
F-0.9400000000000001
sI5
F0.84
sI6
F0.98
sI7
F0.9500000000000001
sI8
F-0.41000000000000003
sI9
F0.5
sI10
F1.0
sI11
F-0.01
sI12
F0.61
sI13
F-0.61
sI14
F-0.37
sI15
F0.42
sI16
F0.66
sI17
F0.31
sI18
F-0.98
sI19
F0.75
sI20
F-0.8300000000000001
sI21
F0.17
sI22
F0.35000000000000003
sI23
F0.1
sI24
F0.26
sI25
F0.68
sI26
F0.16
sI27
F0.97
sI28
F0.04
sI29
F0.72
sI30
F-0.31
sI31
F0.02
sI32
F0.09
sI33
F0.09
sI34
F0.8300000000000001
sI35
F-1.0
sI36
F0.55
sI37
F0.74
sI38
F0.76
sI39
F-0.02
sI40
F-0.22
sI41
F0.01
sI42
F0.28
sI43
F-0.76
sI44
F-0.5
ssg5
I0
ssI95
(dp285
g3
(dp286
I0
F0.49
sI1
F0.19
sI2
F0.06
sI3
F-0.33
sI4
F-0.21
sI5
F-0.97
sI6
F-0.8
sI7
F0.0
sI8
F0.31
sI9
F-0.68
sI10
F-0.85
sI11
F0.23
sI12
F0.74
sI13
F-0.9400000000000001
sI14
F-0.6900000000000001
sI15
F0.17
sI16
F-0.87
sI17
F-0.6
sI18
F-0.14
sI19
F0.55
sI20
F0.99
sI21
F0.8200000000000001
sI22
F-0.99
sI23
F-0.32
sI24
F-0.8200000000000001
sI25
F0.9400000000000001
sI26
F-0.64
sI27
F0.35000000000000003
sI28
F0.39
sI29
F-0.77
sI30
F-0.63
sI31
F-0.19
sI32
F0.74
sI33
F0.9
sI34
F-0.8
sI35
F-0.43
sI36
F-0.44
sI37
F-0.22
sI38
F0.34
sI39
F0.56
sI40
F-0.64
sI41
F-0.6900000000000001
sI42
F0.8300000000000001
sI43
F-0.03
sI44
F0.73
ssg5
I0
ssI96
(dp287
g3
(dp288
I0
F0.54
sI1
F-0.34
sI2
F-0.97
sI3
F0.8300000000000001
sI4
F0.23
sI5
F-0.39
sI6
F-0.08
sI7
F0.31
sI8
F-0.85
sI9
F0.47000000000000003
sI10
F0.77
sI11
F-0.06
sI12
F-0.44
sI13
F0.55
sI14
F0.9
sI15
F0.42
sI16
F-0.46
sI17
F0.8200000000000001
sI18
F0.26
sI19
F0.04
sI20
F0.56
sI21
F-0.79
sI22
F-1.0
sI23
F-0.26
sI24
F0.19
sI25
F-0.89
sI26
F-1.0
sI27
F-0.07
sI28
F-0.18
sI29
F0.38
sI30
F0.28
sI31
F0.49
sI32
F0.87
sI33
F-0.08
sI34
F0.56
sI35
F-0.15
sI36
F0.36
sI37
F-0.24
sI38
F-0.45
sI39
F-0.04
sI40
F0.59
sI41
F-0.96
sI42
F0.6900000000000001
sI43
F0.54
sI44
F0.71
ssg5
I0
ssI97
(dp289
g3
(dp290
I0
F0.54
sI1
F0.9
sI2
F-0.14
sI3
F0.85
sI4
F-0.21
sI5
F-1.0
sI6
F-0.07
sI7
F-0.65
sI8
F-0.06
sI9
F0.32
sI10
F0.51
sI11
F-0.13
sI12
F-0.03
sI13
F0.05
sI14
F0.92
sI15
F-0.2
sI16
F-0.6900000000000001
sI17
F-0.92
sI18
F0.05
sI19
F0.43
sI20
F-0.59
sI21
F-0.21
sI22
F-0.32
sI23
F-0.19
sI24
F0.41000000000000003
sI25
F0.06
sI26
F-0.97
sI27
F-0.8
sI28
F0.29
sI29
F-0.67
sI30
F0.67
sI31
F0.5700000000000001
sI32
F0.97
sI33
F-0.4
sI34
F-0.47000000000000003
sI35
F-0.96
sI36
F0.33
sI37
F-0.08
sI38
F-0.2
sI39
F-0.13
sI40
F0.02
sI41
F-0.88
sI42
F-0.72
sI43
F0.6900000000000001
sI44
F-0.76
ssg5
I0
ssI98
(dp291
g3
(dp292
I0
F-0.28
sI1
F-0.9
sI2
F-0.5
sI3
F0.53
sI4
F0.12
sI5
F-0.79
sI6
F0.88
sI7
F0.7000000000000001
sI8
F0.51
sI9
F-0.18
sI10
F0.32
sI11
F0.15
sI12
F-0.74
sI13
F0.84
sI14
F0.85
sI15
F0.18
sI16
F0.93
sI17
F0.68
sI18
F-0.89
sI19
F0.87
sI20
F-0.78
sI21
F-0.48
sI22
F-0.85
sI23
F0.23
sI24
F0.27
sI25
F0.84
sI26
F-0.45
sI27
F0.35000000000000003
sI28
F0.23
sI29
F0.41000000000000003
sI30
F-0.36
sI31
F0.98
sI32
F-0.44
sI33
F0.25
sI34
F-0.41000000000000003
sI35
F0.72
sI36
F-0.33
sI37
F0.78
sI38
F0.22
sI39
F-0.47000000000000003
sI40
F-0.8
sI41
F0.84
sI42
F-0.97
sI43
F0.9400000000000001
sI44
F-0.48
ssg5
I0
ssI99
(dp293
g3
(dp294
I0
F-0.25
sI1
F-0.09
sI2
F0.8200000000000001
sI3
F-0.24
sI4
F0.91
sI5
F-0.32
sI6
F0.35000000000000003
sI7
F0.91
sI8
F-0.63
sI9
F0.16
sI10
F0.05
sI11
F-0.32
sI12
F0.39
sI13
F-0.67
sI14
F-0.23
sI15
F0.31
sI16
F0.39
sI17
F0.74
sI18
F-0.43
sI19
F-0.6
sI20
F0.8
sI21
F0.5
sI22
F-0.58
sI23
F0.59
sI24
F-0.18
sI25
F0.06
sI26
F-0.24
sI27
F0.26
sI28
F-0.87
sI29
F-0.38
sI30
F0.05
sI31
F-0.36
sI32
F0.88
sI33
F0.67
sI34
F0.63
sI35
F0.7000000000000001
sI36
F0.5700000000000001
sI37
F0.24
sI38
F0.91
sI39
F0.46
sI40
F0.92
sI41
F0.32
sI42
F-0.14
sI43
F-0.17
sI44
F-0.87
ssg5
I0
sssI2
(dp295
I0
(dp296
g3
(dp297
I0
F0.1
sI1
F-0.9500000000000001
sI2
F-0.6900000000000001
sI3
F-0.86
sI4
F0.73
sI5
F-0.25
sI6
F-0.91
sI7
F-0.84
sI8
F-0.67
sI9
F0.49
sI10
F-0.1
sI11
F0.88
sI12
F0.49
sI13
F0.71
sI14
F0.16
sI15
F-0.77
sI16
F0.5
sI17
F0.9500000000000001
sI18
F0.18
sI19
F0.68
sI20
F0.8300000000000001
sI21
F-0.34
sI22
F0.93
sI23
F-0.23
sI24
F-0.1
sI25
F-0.16
sI26
F-0.17
sI27
F-0.09
sI28
F0.64
sI29
F-0.08
sI30
F-0.84
sI31
F-0.33
sI32
F0.51
sI33
F0.16
sI34
F0.31
sI35
F-0.97
sI36
F0.28
sI37
F0.6
sI38
F0.59
sI39
F-0.25
sI40
F-0.13
sI41
F-0.33
sI42
F-0.8
sI43
F-0.3
sI44
F0.09
sI45
F-0.2
sI46
F0.64
sI47
F-0.63
sI48
F0.7000000000000001
sI49
F0.58
sI50
F0.21
sI51
F0.12
sI52
F-0.73
sI53
F-0.7000000000000001
sI54
F-0.9500000000000001
sI55
F0.04
sI56
F0.72
sI57
F0.51
sI58
F-0.06
sI59
F0.63
sI60
F0.33
sI61
F-0.08
sI62
F-0.71
sI63
F0.52
sI64
F-0.6900000000000001
sI65
F-0.45
sI66
F0.07
sI67
F0.35000000000000003
sI68
F0.3
sI69
F0.35000000000000003
sI70
F-0.39
sI71
F-0.39
sI72
F0.9400000000000001
sI73
F-0.56
sI74
F0.23
sI75
F0.18
sI76
F0.9400000000000001
sI77
F0.59
sI78
F0.55
sI79
F-0.96
sI80
F-0.02
sI81
F0.9400000000000001
sI82
F0.13
sI83
F0.03
sI84
F-0.04
sI85
F-0.8
sI86
F0.93
sI87
F0.48
sI88
F0.66
sI89
F0.32
sI90
F-0.9
sI91
F0.9500000000000001
sI92
F-0.85
sI93
F-0.45
sI94
F-1.0
sI95
F-0.63
sI96
F-0.2
sI97
F-0.78
sI98
F-0.4
sI99
F0.27
ssg5
I0
ssI1
(dp298
g3
(dp299
I0
F-0.54
sI1
F0.5700000000000001
sI2
F0.22
sI3
F0.28
sI4
F-0.36
sI5
F-0.37
sI6
F-0.63
sI7
F-0.92
sI8
F0.7000000000000001
sI9
F-0.66
sI10
F0.36
sI11
F-0.45
sI12
F-0.68
sI13
F-0.5
sI14
F-0.66
sI15
F-0.61
sI16
F0.34
sI17
F-0.55
sI18
F0.26
sI19
F-0.59
sI20
F-0.9
sI21
F0.62
sI22
F-0.37
sI23
F-0.35000000000000003
sI24
F-0.91
sI25
F-0.59
sI26
F-0.1
sI27
F-0.36
sI28
F-0.17
sI29
F0.78
sI30
F0.02
sI31
F-0.65
sI32
F0.45
sI33
F0.6900000000000001
sI34
F0.89
sI35
F0.87
sI36
F-0.37
sI37
F-0.79
sI38
F0.25
sI39
F0.71
sI40
F-0.42
sI41
F-0.62
sI42
F-0.76
sI43
F0.61
sI44
F0.03
sI45
F-0.05
sI46
F-0.97
sI47
F0.1
sI48
F0.18
sI49
F0.29
sI50
F0.71
sI51
F-0.13
sI52
F-0.7000000000000001
sI53
F-0.8
sI54
F0.79
sI55
F0.96
sI56
F0.25
sI57
F-0.87
sI58
F-0.35000000000000003
sI59
F0.77
sI60
F-0.47000000000000003
sI61
F0.9400000000000001
sI62
F-0.05
sI63
F-0.96
sI64
F-0.25
sI65
F0.26
sI66
F-0.04
sI67
F-0.88
sI68
F-0.05
sI69
F-0.49
sI70
F-0.81
sI71
F0.25
sI72
F0.17
sI73
F0.71
sI74
F-0.92
sI75
F-0.92
sI76
F0.36
sI77
F0.98
sI78
F0.26
sI79
F-0.46
sI80
F-0.8
sI81
F-0.42
sI82
F0.64
sI83
F0.12
sI84
F0.1
sI85
F0.84
sI86
F0.22
sI87
F0.81
sI88
F0.47000000000000003
sI89
F0.79
sI90
F-0.67
sI91
F0.47000000000000003
sI92
F-0.37
sI93
F0.78
sI94
F-0.3
sI95
F-0.53
sI96
F0.91
sI97
F-0.61
sI98
F0.64
sI99
F-0.48
ssg5
I0
ssI2
(dp300
g3
(dp301
I0
F0.27
sI1
F0.85
sI2
F0.25
sI3
F0.93
sI4
F0.87
sI5
F-0.75
sI6
F0.43
sI7
F-0.71
sI8
F-0.11
sI9
F-0.15
sI10
F-0.66
sI11
F-0.81
sI12
F-0.76
sI13
F0.5
sI14
F-0.9400000000000001
sI15
F0.87
sI16
F-0.03
sI17
F-0.11
sI18
F-0.33
sI19
F0.38
sI20
F-0.07
sI21
F0.41000000000000003
sI22
F0.8200000000000001
sI23
F0.14
sI24
F-0.18
sI25
F0.17
sI26
F0.91
sI27
F-0.15
sI28
F-0.66
sI29
F-0.14
sI30
F0.05
sI31
F0.1
sI32
F-0.5
sI33
F0.92
sI34
F0.02
sI35
F-0.64
sI36
F-0.39
sI37
F-0.55
sI38
F-0.52
sI39
F-0.37
sI40
F0.49
sI41
F-0.23
sI42
F0.93
sI43
F0.6
sI44
F-0.16
sI45
F0.4
sI46
F-0.02
sI47
F0.97
sI48
F-0.58
sI49
F0.04
sI50
F0.36
sI51
F0.86
sI52
F-0.86
sI53
F0.02
sI54
F0.38
sI55
F-0.01
sI56
F0.24
sI57
F0.89
sI58
F-0.8200000000000001
sI59
F-0.61
sI60
F0.7000000000000001
sI61
F0.4
sI62
F0.9400000000000001
sI63
F0.97
sI64
F-0.91
sI65
F0.99
sI66
F0.29
sI67
F0.22
sI68
F0.87
sI69
F-0.06
sI70
F0.5700000000000001
sI71
F-0.79
sI72
F0.55
sI73
F-0.63
sI74
F0.9400000000000001
sI75
F0.54
sI76
F0.13
sI77
F-0.54
sI78
F-0.35000000000000003
sI79
F-0.9500000000000001
sI80
F-0.64
sI81
F-0.14
sI82
F0.37
sI83
F0.77
sI84
F0.14
sI85
F-0.24
sI86
F0.46
sI87
F0.39
sI88
F0.17
sI89
F-0.91
sI90
F-0.9500000000000001
sI91
F-0.67
sI92
F-0.54
sI93
F-0.33
sI94
F-0.4
sI95
F-0.63
sI96
F0.79
sI97
F-0.46
sI98
F-0.58
sI99
F0.35000000000000003
ssg5
I0
ssI3
(dp302
g3
(dp303
I0
F-0.74
sI1
F-0.71
sI2
F-0.46
sI3
F0.2
sI4
F0.62
sI5
F-0.43
sI6
F0.29
sI7
F-0.9400000000000001
sI8
F0.67
sI9
F-0.54
sI10
F-0.48
sI11
F0.64
sI12
F0.07
sI13
F-0.89
sI14
F-0.58
sI15
F-0.04
sI16
F0.29
sI17
F0.45
sI18
F-0.16
sI19
F-0.54
sI20
F-0.85
sI21
F0.71
sI22
F0.01
sI23
F0.5700000000000001
sI24
F-0.65
sI25
F0.22
sI26
F-0.53
sI27
F-0.86
sI28
F0.78
sI29
F0.18
sI30
F-0.5700000000000001
sI31
F-0.71
sI32
F0.19
sI33
F0.41000000000000003
sI34
F-0.18
sI35
F0.58
sI36
F-0.38
sI37
F-0.51
sI38
F-0.13
sI39
F-0.73
sI40
F-0.68
sI41
F-0.02
sI42
F0.16
sI43
F0.26
sI44
F-0.97
sI45
F0.68
sI46
F-0.1
sI47
F0.87
sI48
F-0.65
sI49
F0.99
sI50
F-0.96
sI51
F-0.41000000000000003
sI52
F0.04
sI53
F-0.56
sI54
F-0.15
sI55
F0.27
sI56
F-0.35000000000000003
sI57
F0.9500000000000001
sI58
F-0.76
sI59
F-0.9500000000000001
sI60
F-0.92
sI61
F-0.96
sI62
F-0.5700000000000001
sI63
F-0.88
sI64
F0.25
sI65
F0.26
sI66
F0.24
sI67
F-0.31
sI68
F-0.4
sI69
F0.5700000000000001
sI70
F0.33
sI71
F-0.26
sI72
F-1.0
sI73
F-0.98
sI74
F-0.61
sI75
F-0.12
sI76
F-0.98
sI77
F-0.19
sI78
F-0.48
sI79
F-0.28
sI80
F-0.24
sI81
F0.8
sI82
F0.28
sI83
F-0.6900000000000001
sI84
F-0.05
sI85
F0.8200000000000001
sI86
F0.36
sI87
F-1.0
sI88
F0.15
sI89
F-0.74
sI90
F0.67
sI91
F0.03
sI92
F-0.14
sI93
F-0.24
sI94
F-0.08
sI95
F0.74
sI96
F0.24
sI97
F0.85
sI98
F-0.6
sI99
F0.1
ssg5
I0
ssI4
(dp304
g3
(dp305
I0
F0.53
sI1
F-0.05
sI2
F-0.29
sI3
F-0.76
sI4
F0.98
sI5
F0.74
sI6
F-0.07
sI7
F-0.86
sI8
F0.79
sI9
F0.05
sI10
F0.16
sI11
F0.23
sI12
F0.49
sI13
F-0.8300000000000001
sI14
F-0.48
sI15
F0.93
sI16
F-0.9
sI17
F0.07
sI18
F0.2
sI19
F0.77
sI20
F-0.56
sI21
F-0.67
sI22
F0.76
sI23
F-0.74
sI24
F-0.52
sI25
F-0.9400000000000001
sI26
F0.41000000000000003
sI27
F-0.4
sI28
F0.52
sI29
F-0.99
sI30
F-0.41000000000000003
sI31
F0.9
sI32
F0.43
sI33
F0.24
sI34
F0.42
sI35
F0.12
sI36
F-0.32
sI37
F0.11
sI38
F0.16
sI39
F-0.49
sI40
F-0.76
sI41
F0.75
sI42
F-0.59
sI43
F-0.96
sI44
F-0.77
sI45
F-0.36
sI46
F-0.28
sI47
F-0.24
sI48
F0.86
sI49
F-0.1
sI50
F0.87
sI51
F-0.6900000000000001
sI52
F-0.8200000000000001
sI53
F0.08
sI54
F-0.41000000000000003
sI55
F0.21
sI56
F-0.41000000000000003
sI57
F0.62
sI58
F0.76
sI59
F1.0
sI60
F-0.37
sI61
F-0.31
sI62
F0.41000000000000003
sI63
F-0.54
sI64
F0.06
sI65
F0.45
sI66
F-0.87
sI67
F-0.5
sI68
F0.9500000000000001
sI69
F0.15
sI70
F0.47000000000000003
sI71
F0.32
sI72
F0.04
sI73
F-0.27
sI74
F0.04
sI75
F-0.61
sI76
F0.73
sI77
F0.8
sI78
F0.78
sI79
F-0.5700000000000001
sI80
F-0.14
sI81
F0.18
sI82
F-0.3
sI83
F-0.7000000000000001
sI84
F-0.27
sI85
F0.42
sI86
F0.08
sI87
F0.87
sI88
F-0.61
sI89
F-0.7000000000000001
sI90
F0.42
sI91
F-0.6900000000000001
sI92
F0.88
sI93
F-0.54
sI94
F-0.92
sI95
F-0.51
sI96
F0.65
sI97
F0.67
sI98
F0.64
sI99
F-0.8200000000000001
ssg5
I0
ssI5
(dp306
g3
(dp307
I0
F-0.21
sI1
F-0.59
sI2
F0.79
sI3
F0.87
sI4
F-0.01
sI5
F0.6
sI6
F0.67
sI7
F0.61
sI8
F-0.19
sI9
F-0.85
sI10
F-0.15
sI11
F-0.46
sI12
F-0.67
sI13
F0.37
sI14
F-0.48
sI15
F-0.45
sI16
F0.46
sI17
F-0.5
sI18
F-0.92
sI19
F0.87
sI20
F-0.8
sI21
F0.58
sI22
F0.38
sI23
F-0.71
sI24
F0.54
sI25
F-0.12
sI26
F0.61
sI27
F-0.1
sI28
F0.04
sI29
F-0.72
sI30
F-0.9
sI31
F0.48
sI32
F0.9500000000000001
sI33
F-0.89
sI34
F0.9
sI35
F-0.14
sI36
F-0.81
sI37
F0.39
sI38
F0.55
sI39
F-0.09
sI40
F0.42
sI41
F-0.2
sI42
F0.6
sI43
F0.39
sI44
F0.77
sI45
F0.03
sI46
F-0.22
sI47
F0.5
sI48
F-0.27
sI49
F0.72
sI50
F-0.68
sI51
F-0.9500000000000001
sI52
F0.04
sI53
F-0.39
sI54
F0.62
sI55
F0.74
sI56
F-0.63
sI57
F-0.61
sI58
F0.67
sI59
F-0.8300000000000001
sI60
F0.12
sI61
F0.24
sI62
F-0.63
sI63
F-0.77
sI64
F-0.9400000000000001
sI65
F0.56
sI66
F0.8200000000000001
sI67
F0.4
sI68
F0.27
sI69
F0.5
sI70
F-0.5
sI71
F-0.21
sI72
F0.12
sI73
F-0.19
sI74
F-0.07
sI75
F0.45
sI76
F0.59
sI77
F0.97
sI78
F0.08
sI79
F-0.21
sI80
F-0.63
sI81
F-0.33
sI82
F0.81
sI83
F-0.45
sI84
F0.13
sI85
F0.54
sI86
F-0.47000000000000003
sI87
F-0.86
sI88
F-0.55
sI89
F0.84
sI90
F-0.39
sI91
F0.56
sI92
F-0.08
sI93
F1.0
sI94
F0.05
sI95
F0.04
sI96
F0.02
sI97
F0.99
sI98
F-0.09
sI99
F-0.06
ssg5
I0
ssI6
(dp308
g3
(dp309
I0
F0.8200000000000001
sI1
F-0.46
sI2
F0.23
sI3
F-0.08
sI4
F0.98
sI5
F-0.71
sI6
F-0.27
sI7
F0.26
sI8
F-0.6
sI9
F-0.13
sI10
F-0.8300000000000001
sI11
F0.11
sI12
F-0.51
sI13
F0.79
sI14
F0.4
sI15
F-0.34
sI16
F-0.87
sI17
F0.08
sI18
F-0.9400000000000001
sI19
F0.65
sI20
F0.0
sI21
F-0.42
sI22
F0.87
sI23
F1.0
sI24
F0.52
sI25
F-0.39
sI26
F-0.6
sI27
F-0.03
sI28
F-0.42
sI29
F0.68
sI30
F0.37
sI31
F-0.79
sI32
F0.51
sI33
F-0.19
sI34
F0.09
sI35
F0.6
sI36
F-0.35000000000000003
sI37
F0.16
sI38
F-0.72
sI39
F-0.21
sI40
F0.2
sI41
F-0.11
sI42
F0.2
sI43
F-0.67
sI44
F0.7000000000000001
sI45
F0.06
sI46
F-0.64
sI47
F0.93
sI48
F-0.22
sI49
F0.08
sI50
F0.96
sI51
F-0.03
sI52
F-0.56
sI53
F0.01
sI54
F0.64
sI55
F-0.93
sI56
F0.74
sI57
F-0.34
sI58
F-0.47000000000000003
sI59
F-0.52
sI60
F0.9
sI61
F0.78
sI62
F0.46
sI63
F-0.3
sI64
F-0.98
sI65
F-0.31
sI66
F-0.8200000000000001
sI67
F0.92
sI68
F0.81
sI69
F0.9
sI70
F0.41000000000000003
sI71
F0.08
sI72
F0.74
sI73
F0.04
sI74
F0.07
sI75
F0.33
sI76
F-0.8200000000000001
sI77
F-0.27
sI78
F0.01
sI79
F-0.22
sI80
F0.62
sI81
F0.29
sI82
F-0.97
sI83
F-0.42
sI84
F0.6900000000000001
sI85
F0.84
sI86
F-0.71
sI87
F0.98
sI88
F0.47000000000000003
sI89
F0.17
sI90
F-0.84
sI91
F0.18
sI92
F-0.63
sI93
F0.45
sI94
F0.2
sI95
F0.92
sI96
F0.99
sI97
F-0.26
sI98
F-0.9400000000000001
sI99
F0.85
ssg5
I0
ssI7
(dp310
g3
(dp311
I0
F-0.72
sI1
F0.21
sI2
F0.21
sI3
F-0.87
sI4
F-0.52
sI5
F-0.01
sI6
F-0.04
sI7
F-0.92
sI8
F-0.29
sI9
F0.91
sI10
F0.33
sI11
F-0.63
sI12
F0.33
sI13
F-0.16
sI14
F0.53
sI15
F0.08
sI16
F-0.78
sI17
F0.09
sI18
F0.08
sI19
F-0.91
sI20
F0.18
sI21
F0.53
sI22
F-0.8200000000000001
sI23
F0.51
sI24
F-0.89
sI25
F0.46
sI26
F-0.5700000000000001
sI27
F-0.17
sI28
F0.46
sI29
F-0.02
sI30
F-0.98
sI31
F0.16
sI32
F-0.19
sI33
F-0.49
sI34
F-0.8
sI35
F0.42
sI36
F-0.14
sI37
F-0.18
sI38
F-0.39
sI39
F-0.86
sI40
F-0.63
sI41
F-0.52
sI42
F-0.92
sI43
F1.0
sI44
F0.11
sI45
F-0.28
sI46
F0.51
sI47
F0.85
sI48
F-0.44
sI49
F0.79
sI50
F-0.79
sI51
F-0.72
sI52
F0.8300000000000001
sI53
F-0.25
sI54
F0.51
sI55
F0.5
sI56
F-0.24
sI57
F-0.87
sI58
F0.5
sI59
F0.62
sI60
F0.99
sI61
F0.54
sI62
F-0.29
sI63
F-0.56
sI64
F-0.33
sI65
F0.21
sI66
F-0.27
sI67
F-0.31
sI68
F0.49
sI69
F-0.97
sI70
F-0.72
sI71
F0.49
sI72
F0.18
sI73
F0.51
sI74
F0.14
sI75
F0.18
sI76
F0.76
sI77
F0.52
sI78
F-0.27
sI79
F-0.23
sI80
F-0.39
sI81
F0.34
sI82
F-0.27
sI83
F0.72
sI84
F0.49
sI85
F0.72
sI86
F0.85
sI87
F0.29
sI88
F0.49
sI89
F0.84
sI90
F-0.86
sI91
F0.05
sI92
F-0.43
sI93
F0.09
sI94
F-0.6
sI95
F0.6
sI96
F-0.23
sI97
F-0.46
sI98
F-0.46
sI99
F0.98
ssg5
I0
ssI8
(dp312
g3
(dp313
I0
F0.8300000000000001
sI1
F0.13
sI2
F0.25
sI3
F0.89
sI4
F-0.68
sI5
F-0.78
sI6
F0.85
sI7
F0.27
sI8
F-0.04
sI9
F0.31
sI10
F0.4
sI11
F-0.52
sI12
F0.52
sI13
F-0.58
sI14
F-0.62
sI15
F-0.1
sI16
F0.88
sI17
F0.39
sI18
F-0.52
sI19
F0.05
sI20
F0.08
sI21
F-0.03
sI22
F-0.97
sI23
F0.1
sI24
F-0.21
sI25
F-0.01
sI26
F-0.33
sI27
F-0.78
sI28
F-0.28
sI29
F0.05
sI30
F-0.43
sI31
F0.02
sI32
F-0.13
sI33
F0.34
sI34
F0.21
sI35
F-0.93
sI36
F0.25
sI37
F-0.8200000000000001
sI38
F-0.8
sI39
F0.26
sI40
F-0.53
sI41
F0.99
sI42
F0.86
sI43
F-0.02
sI44
F-0.64
sI45
F-0.59
sI46
F0.27
sI47
F-0.84
sI48
F0.8300000000000001
sI49
F-0.35000000000000003
sI50
F0.0
sI51
F-0.36
sI52
F0.43
sI53
F-0.45
sI54
F0.7000000000000001
sI55
F-0.38
sI56
F-0.8200000000000001
sI57
F0.34
sI58
F0.51
sI59
F0.75
sI60
F-0.35000000000000003
sI61
F-0.77
sI62
F0.46
sI63
F0.3
sI64
F-0.32
sI65
F0.65
sI66
F-0.19
sI67
F-0.7000000000000001
sI68
F-0.5
sI69
F-0.98
sI70
F-0.11
sI71
F0.4
sI72
F-0.05
sI73
F0.88
sI74
F0.51
sI75
F-0.78
sI76
F-0.15
sI77
F-0.28
sI78
F0.08
sI79
F-0.92
sI80
F-0.32
sI81
F-0.18
sI82
F-0.52
sI83
F-0.61
sI84
F-0.43
sI85
F-0.08
sI86
F0.09
sI87
F0.63
sI88
F0.25
sI89
F0.05
sI90
F-0.9500000000000001
sI91
F0.91
sI92
F-0.72
sI93
F-0.54
sI94
F-0.9400000000000001
sI95
F0.33
sI96
F-0.14
sI97
F-0.4
sI98
F0.92
sI99
F-0.4
ssg5
I0
ssI9
(dp314
g3
(dp315
I0
F-0.88
sI1
F0.3
sI2
F0.05
sI3
F-0.9
sI4
F0.99
sI5
F-0.45
sI6
F0.68
sI7
F-0.54
sI8
F-0.31
sI9
F-0.98
sI10
F0.86
sI11
F0.05
sI12
F-0.38
sI13
F0.76
sI14
F0.73
sI15
F-0.07
sI16
F0.63
sI17
F0.1
sI18
F-0.47000000000000003
sI19
F0.32
sI20
F0.16
sI21
F0.66
sI22
F-0.59
sI23
F0.0
sI24
F0.66
sI25
F-0.32
sI26
F0.2
sI27
F-0.8300000000000001
sI28
F-0.32
sI29
F0.75
sI30
F0.47000000000000003
sI31
F-0.6900000000000001
sI32
F-0.65
sI33
F-0.6
sI34
F-0.52
sI35
F0.92
sI36
F-0.61
sI37
F-0.13
sI38
F-0.01
sI39
F-0.85
sI40
F-0.7000000000000001
sI41
F0.97
sI42
F-0.25
sI43
F0.33
sI44
F0.49
sI45
F0.45
sI46
F0.86
sI47
F-0.45
sI48
F0.9400000000000001
sI49
F-0.43
sI50
F-0.13
sI51
F-0.14
sI52
F0.93
sI53
F0.34
sI54
F-0.43
sI55
F0.03
sI56
F-0.78
sI57
F0.5700000000000001
sI58
F-0.12
sI59
F-0.97
sI60
F-0.5700000000000001
sI61
F-0.77
sI62
F0.13
sI63
F-0.41000000000000003
sI64
F0.47000000000000003
sI65
F0.17
sI66
F0.8200000000000001
sI67
F0.09
sI68
F0.19
sI69
F-0.49
sI70
F-0.45
sI71
F-0.86
sI72
F-0.8
sI73
F0.56
sI74
F-0.68
sI75
F-0.67
sI76
F0.35000000000000003
sI77
F-0.15
sI78
F0.39
sI79
F0.36
sI80
F-0.47000000000000003
sI81
F0.07
sI82
F-0.19
sI83
F-0.48
sI84
F0.05
sI85
F-0.8
sI86
F0.06
sI87
F0.13
sI88
F0.53
sI89
F-0.85
sI90
F-0.6900000000000001
sI91
F0.54
sI92
F0.86
sI93
F0.02
sI94
F0.27
sI95
F-0.32
sI96
F-0.64
sI97
F0.42
sI98
F-0.45
sI99
F1.0
ssg5
I0
ssI10
(dp316
g3
(dp317
I0
F-0.36
sI1
F-0.6900000000000001
sI2
F0.91
sI3
F-0.59
sI4
F-0.97
sI5
F-0.15
sI6
F0.13
sI7
F0.31
sI8
F0.09
sI9
F0.2
sI10
F-0.77
sI11
F0.42
sI12
F-0.35000000000000003
sI13
F0.17
sI14
F-0.44
sI15
F0.79
sI16
F0.81
sI17
F0.15
sI18
F0.04
sI19
F0.71
sI20
F-0.17
sI21
F0.12
sI22
F0.03
sI23
F0.59
sI24
F0.47000000000000003
sI25
F-1.0
sI26
F-0.36
sI27
F-0.52
sI28
F-0.22
sI29
F0.77
sI30
F-0.71
sI31
F0.97
sI32
F-0.89
sI33
F0.17
sI34
F0.5700000000000001
sI35
F-0.47000000000000003
sI36
F0.51
sI37
F0.97
sI38
F0.14
sI39
F0.3
sI40
F-0.62
sI41
F0.22
sI42
F0.5700000000000001
sI43
F0.98
sI44
F-0.63
sI45
F-0.15
sI46
F0.77
sI47
F0.39
sI48
F0.15
sI49
F-0.9500000000000001
sI50
F-0.27
sI51
F0.9400000000000001
sI52
F0.48
sI53
F0.65
sI54
F0.65
sI55
F0.41000000000000003
sI56
F0.31
sI57
F-0.49
sI58
F0.39
sI59
F-0.22
sI60
F0.46
sI61
F-0.13
sI62
F0.2
sI63
F-0.05
sI64
F-0.12
sI65
F-0.65
sI66
F-0.01
sI67
F0.9500000000000001
sI68
F-0.09
sI69
F-0.25
sI70
F-0.16
sI71
F0.46
sI72
F-0.7000000000000001
sI73
F0.18
sI74
F-0.29
sI75
F0.06
sI76
F-1.0
sI77
F0.35000000000000003
sI78
F-0.8
sI79
F0.42
sI80
F-0.74
sI81
F-0.81
sI82
F0.23
sI83
F-0.99
sI84
F-0.31
sI85
F0.25
sI86
F0.1
sI87
F0.72
sI88
F-0.34
sI89
F-0.43
sI90
F-0.21
sI91
F-0.64
sI92
F0.68
sI93
F0.97
sI94
F-0.81
sI95
F-0.38
sI96
F0.32
sI97
F0.1
sI98
F0.42
sI99
F-0.9500000000000001
ssg5
I0
ssI11
(dp318
g3
(dp319
I0
F-0.29
sI1
F-0.35000000000000003
sI2
F-0.02
sI3
F-0.5700000000000001
sI4
F0.61
sI5
F0.59
sI6
F0.72
sI7
F0.97
sI8
F-0.62
sI9
F0.61
sI10
F0.76
sI11
F-0.29
sI12
F0.32
sI13
F-0.14
sI14
F0.36
sI15
F0.84
sI16
F-0.75
sI17
F0.87
sI18
F-0.37
sI19
F0.33
sI20
F-0.87
sI21
F0.24
sI22
F-0.04
sI23
F-0.24
sI24
F0.59
sI25
F0.33
sI26
F0.53
sI27
F-0.81
sI28
F-0.07
sI29
F-0.22
sI30
F-0.43
sI31
F-0.41000000000000003
sI32
F0.49
sI33
F0.32
sI34
F-0.27
sI35
F-0.03
sI36
F0.52
sI37
F0.24
sI38
F0.53
sI39
F0.62
sI40
F-0.72
sI41
F-0.26
sI42
F0.6900000000000001
sI43
F0.41000000000000003
sI44
F0.27
sI45
F-0.73
sI46
F-0.3
sI47
F-0.85
sI48
F0.29
sI49
F0.98
sI50
F-0.79
sI51
F-0.9
sI52
F0.75
sI53
F0.75
sI54
F0.24
sI55
F0.44
sI56
F0.28
sI57
F-0.73
sI58
F0.5700000000000001
sI59
F0.11
sI60
F0.48
sI61
F-0.21
sI62
F0.16
sI63
F-0.9500000000000001
sI64
F-0.5700000000000001
sI65
F-0.32
sI66
F-0.2
sI67
F-0.61
sI68
F-0.9
sI69
F0.18
sI70
F0.16
sI71
F-0.32
sI72
F0.91
sI73
F-0.03
sI74
F-0.13
sI75
F0.26
sI76
F0.64
sI77
F-0.91
sI78
F-0.03
sI79
F-0.04
sI80
F-0.78
sI81
F0.48
sI82
F-0.49
sI83
F0.03
sI84
F0.74
sI85
F0.65
sI86
F0.85
sI87
F-0.8
sI88
F0.81
sI89
F0.75
sI90
F0.37
sI91
F-0.08
sI92
F0.21
sI93
F0.3
sI94
F-0.46
sI95
F0.32
sI96
F0.61
sI97
F-0.27
sI98
F0.77
sI99
F0.16
ssg5
I0
ssI12
(dp320
g3
(dp321
I0
F0.92
sI1
F0.73
sI2
F0.59
sI3
F0.39
sI4
F0.4
sI5
F-0.22
sI6
F-0.3
sI7
F0.19
sI8
F-0.74
sI9
F0.87
sI10
F0.31
sI11
F-0.5700000000000001
sI12
F-0.76
sI13
F0.85
sI14
F0.14
sI15
F0.44
sI16
F-0.97
sI17
F0.2
sI18
F-0.47000000000000003
sI19
F0.66
sI20
F0.31
sI21
F-0.93
sI22
F0.46
sI23
F-0.29
sI24
F0.54
sI25
F0.56
sI26
F0.16
sI27
F0.5700000000000001
sI28
F0.46
sI29
F-0.02
sI30
F-0.63
sI31
F0.64
sI32
F-0.04
sI33
F0.8200000000000001
sI34
F-0.33
sI35
F0.12
sI36
F-0.17
sI37
F0.0
sI38
F-0.85
sI39
F0.47000000000000003
sI40
F-0.5700000000000001
sI41
F-0.45
sI42
F-0.35000000000000003
sI43
F0.8200000000000001
sI44
F0.81
sI45
F-0.47000000000000003
sI46
F-0.02
sI47
F0.39
sI48
F-0.59
sI49
F-0.03
sI50
F0.96
sI51
F-0.9500000000000001
sI52
F0.09
sI53
F0.3
sI54
F0.75
sI55
F-0.89
sI56
F-0.86
sI57
F0.37
sI58
F0.11
sI59
F0.09
sI60
F-0.39
sI61
F-0.6900000000000001
sI62
F0.56
sI63
F-0.03
sI64
F-0.51
sI65
F-0.09
sI66
F-0.39
sI67
F0.9400000000000001
sI68
F-0.28
sI69
F-0.68
sI70
F-0.8300000000000001
sI71
F0.53
sI72
F0.36
sI73
F-0.52
sI74
F0.39
sI75
F0.36
sI76
F-0.6900000000000001
sI77
F0.79
sI78
F0.8
sI79
F0.0
sI80
F0.35000000000000003
sI81
F0.61
sI82
F-0.8200000000000001
sI83
F-0.19
sI84
F-0.48
sI85
F-0.63
sI86
F0.33
sI87
F0.05
sI88
F0.53
sI89
F-0.29
sI90
F0.19
sI91
F0.44
sI92
F-0.6900000000000001
sI93
F0.8200000000000001
sI94
F0.36
sI95
F0.27
sI96
F0.29
sI97
F-0.64
sI98
F-0.8200000000000001
sI99
F-0.06
ssg5
I0
ssI13
(dp322
g3
(dp323
I0
F-0.88
sI1
F0.71
sI2
F-0.54
sI3
F-0.24
sI4
F0.75
sI5
F0.11
sI6
F0.5
sI7
F0.53
sI8
F0.38
sI9
F0.65
sI10
F0.05
sI11
F-0.9
sI12
F0.9400000000000001
sI13
F-0.59
sI14
F0.56
sI15
F-0.8200000000000001
sI16
F-0.89
sI17
F-0.92
sI18
F0.87
sI19
F0.53
sI20
F-0.74
sI21
F0.6900000000000001
sI22
F0.56
sI23
F0.24
sI24
F0.9400000000000001
sI25
F0.06
sI26
F-0.37
sI27
F0.75
sI28
F-0.12
sI29
F-0.23
sI30
F-0.88
sI31
F0.04
sI32
F0.78
sI33
F-0.54
sI34
F-0.62
sI35
F-0.04
sI36
F-0.87
sI37
F0.21
sI38
F-0.93
sI39
F-0.78
sI40
F0.35000000000000003
sI41
F-0.25
sI42
F-0.93
sI43
F0.89
sI44
F-0.58
sI45
F0.19
sI46
F-0.08
sI47
F-0.46
sI48
F0.96
sI49
F-0.21
sI50
F0.0
sI51
F-0.65
sI52
F-0.25
sI53
F-0.5
sI54
F-0.25
sI55
F-0.06
sI56
F-0.73
sI57
F-0.01
sI58
F-0.45
sI59
F0.88
sI60
F0.42
sI61
F-0.71
sI62
F-0.18
sI63
F-0.33
sI64
F-0.3
sI65
F0.72
sI66
F0.92
sI67
F0.4
sI68
F0.45
sI69
F0.92
sI70
F0.19
sI71
F0.12
sI72
F0.68
sI73
F0.26
sI74
F-0.9
sI75
F0.88
sI76
F0.9400000000000001
sI77
F-0.8
sI78
F-0.71
sI79
F0.56
sI80
F-0.66
sI81
F0.8
sI82
F-0.84
sI83
F-0.96
sI84
F-0.21
sI85
F0.59
sI86
F-0.52
sI87
F0.89
sI88
F0.42
sI89
F0.28
sI90
F0.11
sI91
F-0.78
sI92
F-0.17
sI93
F-0.18
sI94
F-0.87
sI95
F0.86
sI96
F0.9400000000000001
sI97
F0.35000000000000003
sI98
F0.12
sI99
F0.99
ssg5
I0
sss.