(dp0
I0
(dp1
I0
(dp2
S'links'
p3
(dp4
sS'value'
p5
I0
ssI1
(dp6
g3
(dp7
sg5
I0
ssI2
(dp8
g3
(dp9
sg5
I0
ssI3
(dp10
g3
(dp11
sg5
I0
ssI4
(dp12
g3
(dp13
sg5
I0
ssI5
(dp14
g3
(dp15
sg5
I0
ssI6
(dp16
g3
(dp17
sg5
I0
ssI7
(dp18
g3
(dp19
sg5
I0
ssI8
(dp20
g3
(dp21
sg5
I0
ssI9
(dp22
g3
(dp23
sg5
I0
ssI10
(dp24
g3
(dp25
sg5
I0
ssI11
(dp26
g3
(dp27
sg5
I0
ssI12
(dp28
g3
(dp29
sg5
I0
ssI13
(dp30
g3
(dp31
sg5
I0
ssI14
(dp32
g3
(dp33
sg5
I0
ssI15
(dp34
g3
(dp35
sg5
I0
ssI16
(dp36
g3
(dp37
sg5
I0
ssI17
(dp38
g3
(dp39
sg5
I0
ssI18
(dp40
g3
(dp41
sg5
I0
ssI19
(dp42
g3
(dp43
sg5
I0
ssI20
(dp44
g3
(dp45
sg5
I0
ssI21
(dp46
g3
(dp47
sg5
I0
ssI22
(dp48
g3
(dp49
sg5
I0
ssI23
(dp50
g3
(dp51
sg5
I0
ssI24
(dp52
g3
(dp53
sg5
I0
ssI25
(dp54
g3
(dp55
sg5
I0
ssI26
(dp56
g3
(dp57
sg5
I0
ssI27
(dp58
g3
(dp59
sg5
I0
ssI28
(dp60
g3
(dp61
sg5
I0
ssI29
(dp62
g3
(dp63
sg5
I0
ssI30
(dp64
g3
(dp65
sg5
I0
ssI31
(dp66
g3
(dp67
sg5
I0
ssI32
(dp68
g3
(dp69
sg5
I0
ssI33
(dp70
g3
(dp71
sg5
I0
ssI34
(dp72
g3
(dp73
sg5
I0
ssI35
(dp74
g3
(dp75
sg5
I0
ssI36
(dp76
g3
(dp77
sg5
I0
ssI37
(dp78
g3
(dp79
sg5
I0
ssI38
(dp80
g3
(dp81
sg5
I0
ssI39
(dp82
g3
(dp83
sg5
I0
ssI40
(dp84
g3
(dp85
sg5
I0
ssI41
(dp86
g3
(dp87
sg5
I0
ssI42
(dp88
g3
(dp89
sg5
I0
ssI43
(dp90
g3
(dp91
sg5
I0
ssI44
(dp92
g3
(dp93
sg5
I0
sssI1
(dp94
I0
(dp95
g3
(dp96
I0
F0.7500000000000001
sI1
F0.8300000000000001
sI2
F0.03
sI3
F-0.9700000000000001
sI4
F0.44000000000000006
sI5
F0.23
sI6
F-0.2600000000000001
sI7
F-0.8500000000000001
sI8
F0.21000000000000005
sI9
F0.9900000000000001
sI10
F-0.39
sI11
F0.27000000000000013
sI12
F0.47
sI13
F-0.45000000000000007
sI14
F0.8
sI15
F-0.63
sI16
F-0.44999999999999996
sI17
F-0.58
sI18
F0.4
sI19
F0.52
sI20
F0.48
sI21
F0.1
sI22
F0.28
sI23
F-0.64
sI24
F-0.06
sI25
F0.23
sI26
F0.26
sI27
F0.47
sI28
F0.30000000000000004
sI29
F-0.21000000000000005
sI30
F0.8400000000000001
sI31
F0.69
sI32
F0.18000000000000002
sI33
F-0.31
sI34
F0.38
sI35
F0.009999999999999981
sI36
F-0.4600000000000001
sI37
F1.06
sI38
F-0.66
sI39
F-0.64
sI40
F-0.43999999999999995
sI41
F0.21
sI42
F-0.03
sI43
F0.29000000000000004
sI44
F-0.37
ssg5
I0
ssI1
(dp97
g3
(dp98
I0
F-0.58
sI1
F0.56
sI2
F0.69
sI3
F-0.59
sI4
F-0.06
sI5
F-0.95
sI6
F0.28
sI7
F0.14
sI8
F0.78
sI9
F-1.2500000000000002
sI10
F-0.7000000000000001
sI11
F-0.8900000000000001
sI12
F0.47
sI13
F0.22
sI14
F0.6
sI15
F-0.6900000000000001
sI16
F1.2000000000000002
sI17
F0.20000000000000004
sI18
F-0.22
sI19
F-0.47
sI20
F0.23
sI21
F0.68
sI22
F0.6
sI23
F0.22000000000000006
sI24
F0.30000000000000004
sI25
F0.29000000000000004
sI26
F-0.69
sI27
F-0.71
sI28
F-0.07999999999999999
sI29
F0.10000000000000003
sI30
F0.87
sI31
F-0.5499999999999999
sI32
F0.16
sI33
F0.28
sI34
F-0.4
sI35
F0.52
sI36
F-0.63
sI37
F-0.66
sI38
F1.11
sI39
F0.7100000000000001
sI40
F1.1800000000000002
sI41
F0.38
sI42
F-0.51
sI43
F-0.10000000000000003
sI44
F-0.14
ssg5
I0
ssI2
(dp99
g3
(dp100
I0
F-0.27
sI1
F0.07999999999999999
sI2
F0.82
sI3
F0.21000000000000005
sI4
F-0.78
sI5
F-0.77
sI6
F0.5000000000000001
sI7
F-0.6
sI8
F0.74
sI9
F0.04000000000000001
sI10
F-1.3000000000000003
sI11
F2.7755575615628914e-17
sI12
F0.30000000000000004
sI13
F-0.01999999999999999
sI14
F0.05000000000000002
sI15
F0.28000000000000014
sI16
F0.7000000000000001
sI17
F1.3400000000000003
sI18
F-0.72
sI19
F-0.010000000000000037
sI20
F0.07
sI21
F-0.9500000000000001
sI22
F-0.07
sI23
F-0.6000000000000001
sI24
F0.26
sI25
F0.5000000000000001
sI26
F-0.010000000000000009
sI27
F-0.17
sI28
F-0.31000000000000005
sI29
F-0.7200000000000001
sI30
F0.63
sI31
F-0.29000000000000004
sI32
F0.23000000000000007
sI33
F-0.07999999999999999
sI34
F0.8700000000000001
sI35
F0.6199999999999999
sI36
F0.43999999999999995
sI37
F-0.73
sI38
F-0.88
sI39
F0.74
sI40
F-0.42000000000000015
sI41
F0.12
sI42
F-0.61
sI43
F-0.45000000000000007
sI44
F1.2700000000000002
ssg5
I0
ssI3
(dp101
g3
(dp102
I0
F-1.3300000000000003
sI1
F1.06
sI2
F-0.7000000000000001
sI3
F0.51
sI4
F0.28
sI5
F1.3000000000000003
sI6
F-0.56
sI7
F0.8099999999999999
sI8
F0.08000000000000002
sI9
F0.9
sI10
F0.73
sI11
F-0.2600000000000001
sI12
F0.31000000000000005
sI13
F-0.47
sI14
F0.39
sI15
F0.5500000000000002
sI16
F0.38
sI17
F-0.009999999999999981
sI18
F-0.33000000000000007
sI19
F1.1300000000000001
sI20
F0.4900000000000001
sI21
F-0.48
sI22
F-0.09
sI23
F-0.32000000000000006
sI24
F0.20000000000000004
sI25
F-0.9
sI26
F-0.38
sI27
F1.02
sI28
F0.69
sI29
F-0.24000000000000002
sI30
F-0.49
sI31
F-0.54
sI32
F-0.67
sI33
F-0.17
sI34
F0.99
sI35
F-0.32000000000000006
sI36
F-0.67
sI37
F0.5
sI38
F-0.12000000000000002
sI39
F0.020000000000000004
sI40
F0.84
sI41
F-1.0
sI42
F0.6900000000000001
sI43
F0.7900000000000001
sI44
F-0.06
ssg5
I0
ssI4
(dp103
g3
(dp104
I0
F-0.74
sI1
F-0.62
sI2
F-1.01
sI3
F0.98
sI4
F0.32000000000000006
sI5
F0.010000000000000009
sI6
F0.65
sI7
F0.13
sI8
F-1.3500000000000003
sI9
F-0.34
sI10
F0.27
sI11
F0.15000000000000002
sI12
F-0.020000000000000046
sI13
F-1.1800000000000002
sI14
F-0.8200000000000001
sI15
F-0.6300000000000001
sI16
F-0.8799999999999999
sI17
F-0.8999999999999999
sI18
F-0.32000000000000006
sI19
F0.020000000000000018
sI20
F0.41000000000000003
sI21
F0.59
sI22
F0.66
sI23
F-0.3500000000000001
sI24
F-0.38
sI25
F-0.7999999999999999
sI26
F-0.05000000000000002
sI27
F-0.10999999999999999
sI28
F-0.41000000000000003
sI29
F-0.8
sI30
F-0.16
sI31
F-0.33000000000000007
sI32
F0.3400000000000001
sI33
F0.6200000000000001
sI34
F0.37
sI35
F0.07
sI36
F0.65
sI37
F0.7100000000000001
sI38
F0.06
sI39
F-0.010000000000000009
sI40
F-0.9099999999999999
sI41
F0.5100000000000001
sI42
F-0.36
sI43
F-1.08
sI44
F-0.7100000000000001
ssg5
I0
ssI5
(dp105
g3
(dp106
I0
F-0.91
sI1
F0.61
sI2
F0.61
sI3
F-0.009999999999999995
sI4
F-0.9600000000000001
sI5
F-0.67
sI6
F0.4900000000000001
sI7
F-0.6
sI8
F0.19000000000000003
sI9
F0.9600000000000001
sI10
F0.21000000000000005
sI11
F0.64
sI12
F0.18999999999999997
sI13
F-0.38
sI14
F-0.76
sI15
F0.49
sI16
F-0.63
sI17
F0.88
sI18
F-1.0
sI19
F0.87
sI20
F0.5800000000000001
sI21
F-0.4900000000000001
sI22
F0.43000000000000005
sI23
F-0.47
sI24
F0.82
sI25
F-0.2
sI26
F0.62
sI27
F0.15000000000000002
sI28
F1.1
sI29
F-0.21000000000000005
sI30
F0.22000000000000006
sI31
F-0.88
sI32
F0.71
sI33
F-0.51
sI34
F0.54
sI35
F0.9700000000000001
sI36
F0.26
sI37
F0.18999999999999997
sI38
F0.79
sI39
F-0.43000000000000005
sI40
F0.6299999999999999
sI41
F-0.12
sI42
F-0.82
sI43
F-0.6499999999999999
sI44
F-0.73
ssg5
I0
ssI6
(dp107
g3
(dp108
I0
F-0.66
sI1
F0.2500000000000001
sI2
F-0.63
sI3
F-0.32000000000000006
sI4
F-0.23
sI5
F0.31000000000000005
sI6
F0.27
sI7
F-0.31999999999999995
sI8
F0.88
sI9
F0.65
sI10
F0.66
sI11
F-0.3600000000000001
sI12
F-1.1
sI13
F0.4700000000000001
sI14
F-0.62
sI15
F-0.8900000000000001
sI16
F0.06
sI17
F0.16
sI18
F0.0
sI19
F1.1900000000000002
sI20
F-0.01999999999999999
sI21
F0.7
sI22
F0.79
sI23
F-0.5700000000000001
sI24
F0.3500000000000001
sI25
F0.18000000000000002
sI26
F-0.30000000000000004
sI27
F-0.050000000000000044
sI28
F0.9500000000000001
sI29
F0.09
sI30
F0.20000000000000004
sI31
F-0.21
sI32
F0.03
sI33
F-0.41000000000000003
sI34
F0.6900000000000001
sI35
F-0.4900000000000001
sI36
F0.6499999999999999
sI37
F0.51
sI38
F-0.07
sI39
F0.2
sI40
F-0.33
sI41
F0.63
sI42
F0.37
sI43
F-0.48
sI44
F-0.4
ssg5
I0
ssI7
(dp109
g3
(dp110
I0
F-0.48
sI1
F0.9700000000000001
sI2
F0.74
sI3
F0.72
sI4
F0.12
sI5
F-0.28
sI6
F1.1600000000000001
sI7
F0.62
sI8
F-0.22000000000000006
sI9
F-0.85
sI10
F-0.27000000000000013
sI11
F0.16000000000000006
sI12
F0.9800000000000001
sI13
F-0.5599999999999999
sI14
F-0.39
sI15
F0.9400000000000001
sI16
F0.56
sI17
F0.41000000000000003
sI18
F-0.49
sI19
F1.3300000000000003
sI20
F-0.51
sI21
F0.13
sI22
F0.86
sI23
F-0.51
sI24
F0.36
sI25
F-0.41000000000000003
sI26
F-0.36
sI27
F-0.3900000000000001
sI28
F-0.41000000000000003
sI29
F0.5800000000000001
sI30
F1.4000000000000004
sI31
F-0.5700000000000001
sI32
F-0.3500000000000001
sI33
F-0.6599999999999999
sI34
F0.2
sI35
F0.19
sI36
F0.96
sI37
F-0.43999999999999995
sI38
F0.93
sI39
F-0.28
sI40
F0.74
sI41
F-0.9199999999999999
sI42
F0.35
sI43
F0.05000000000000002
sI44
F-0.56
ssg5
I0
ssI8
(dp111
g3
(dp112
I0
F-0.14
sI1
F0.7999999999999999
sI2
F-0.16
sI3
F0.91
sI4
F-0.15
sI5
F0.79
sI6
F-0.9400000000000001
sI7
F-0.73
sI8
F-0.7
sI9
F0.63
sI10
F0.27
sI11
F-0.31000000000000005
sI12
F0.76
sI13
F0.10000000000000003
sI14
F-0.37
sI15
F0.45000000000000007
sI16
F-0.30000000000000004
sI17
F-0.17000000000000012
sI18
F0.8899999999999999
sI19
F-0.7100000000000001
sI20
F0.7799999999999999
sI21
F-0.24000000000000007
sI22
F0.54
sI23
F0.54
sI24
F-0.67
sI25
F-0.17
sI26
F-0.8799999999999999
sI27
F0.53
sI28
F0.7200000000000001
sI29
F-0.22000000000000006
sI30
F-0.24000000000000002
sI31
F0.14999999999999997
sI32
F1.2100000000000002
sI33
F-0.020000000000000018
sI34
F0.3400000000000001
sI35
F-0.53
sI36
F0.03
sI37
F0.6000000000000001
sI38
F-1.09
sI39
F0.9099999999999999
sI40
F0.6599999999999999
sI41
F0.07
sI42
F-0.6699999999999999
sI43
F-0.73
sI44
F1.01
ssg5
I0
ssI9
(dp113
g3
(dp114
I0
F0.3400000000000001
sI1
F0.91
sI2
F-0.7
sI3
F-0.11000000000000001
sI4
F-0.17
sI5
F-0.5000000000000001
sI6
F0.78
sI7
F-0.66
sI8
F1.0
sI9
F-0.63
sI10
F0.8600000000000001
sI11
F0.5800000000000001
sI12
F-0.5800000000000001
sI13
F-0.7200000000000001
sI14
F-0.6900000000000001
sI15
F-0.55
sI16
F0.3500000000000001
sI17
F-0.5500000000000002
sI18
F-0.19
sI19
F-0.34
sI20
F0.55
sI21
F-0.21000000000000005
sI22
F-0.21000000000000005
sI23
F-0.22000000000000006
sI24
F-0.24000000000000002
sI25
F-0.07999999999999999
sI26
F0.3700000000000001
sI27
F-0.18000000000000002
sI28
F1.08
sI29
F0.8099999999999999
sI30
F0.13
sI31
F-0.41000000000000003
sI32
F-0.86
sI33
F-0.30000000000000004
sI34
F-0.31
sI35
F1.1400000000000001
sI36
F-0.52
sI37
F0.06
sI38
F0.14000000000000007
sI39
F0.6300000000000001
sI40
F-0.86
sI41
F0.58
sI42
F-0.30000000000000004
sI43
F1.1400000000000001
sI44
F-0.9700000000000001
ssg5
I0
ssI10
(dp115
g3
(dp116
I0
F-0.89
sI1
F0.4800000000000001
sI2
F-0.9900000000000001
sI3
F-1.03
sI4
F-1.05
sI5
F0.58
sI6
F0.54
sI7
F-0.59
sI8
F-1.2800000000000002
sI9
F0.27
sI10
F-0.31000000000000005
sI11
F-0.44999999999999996
sI12
F-0.41000000000000003
sI13
F-0.73
sI14
F-0.6499999999999999
sI15
F0.88
sI16
F0.52
sI17
F-1.06
sI18
F-0.4
sI19
F-0.31000000000000005
sI20
F-0.55
sI21
F-0.24
sI22
F0.52
sI23
F-1.1900000000000002
sI24
F-0.39
sI25
F0.30000000000000004
sI26
F-0.8300000000000001
sI27
F-0.56
sI28
F-0.8099999999999999
sI29
F-0.4
sI30
F0.41000000000000003
sI31
F0.51
sI32
F1.2800000000000002
sI33
F-0.42000000000000004
sI34
F-0.04000000000000001
sI35
F-0.99
sI36
F-1.0
sI37
F0.9
sI38
F-0.9400000000000001
sI39
F-0.88
sI40
F1.0
sI41
F-0.29000000000000004
sI42
F0.23
sI43
F-0.32000000000000006
sI44
F1.11
ssg5
I0
ssI11
(dp117
g3
(dp118
I0
F-0.19000000000000003
sI1
F-0.92
sI2
F0.96
sI3
F0.22000000000000003
sI4
F0.04000000000000001
sI5
F-0.51
sI6
F-0.67
sI7
F0.35
sI8
F0.11
sI9
F0.12
sI10
F0.89
sI11
F-0.07
sI12
F0.79
sI13
F-0.76
sI14
F0.5300000000000001
sI15
F-0.8099999999999999
sI16
F-0.31000000000000005
sI17
F-0.10000000000000003
sI18
F-0.34
sI19
F-1.02
sI20
F0.06
sI21
F-0.9199999999999999
sI22
F-0.22000000000000003
sI23
F-0.33000000000000007
sI24
F-1.08
sI25
F0.42000000000000015
sI26
F-0.38
sI27
F0.06
sI28
F0.28
sI29
F0.74
sI30
F0.8300000000000001
sI31
F0.82
sI32
F0.0
sI33
F0.5599999999999999
sI34
F-0.54
sI35
F-0.1
sI36
F0.36
sI37
F-0.09000000000000002
sI38
F0.68
sI39
F0.009999999999999995
sI40
F0.25
sI41
F0.21999999999999995
sI42
F0.04000000000000001
sI43
F-0.03
sI44
F-0.32000000000000006
ssg5
I0
ssI12
(dp119
g3
(dp120
I0
F-0.30000000000000004
sI1
F0.2600000000000001
sI2
F0.62
sI3
F-0.27
sI4
F0.41000000000000003
sI5
F-0.4
sI6
F1.1800000000000002
sI7
F0.73
sI8
F0.42000000000000004
sI9
F-0.24000000000000002
sI10
F-0.3700000000000001
sI11
F0.29
sI12
F0.86
sI13
F0.51
sI14
F0.020000000000000004
sI15
F-1.1800000000000002
sI16
F0.31000000000000005
sI17
F-0.6900000000000001
sI18
F-0.3500000000000001
sI19
F0.85
sI20
F-1.05
sI21
F-0.23999999999999996
sI22
F0.41000000000000003
sI23
F-0.52
sI24
F-0.6000000000000001
sI25
F-0.75
sI26
F0.4
sI27
F-1.2100000000000002
sI28
F0.49
sI29
F-0.3500000000000001
sI30
F-0.7000000000000001
sI31
F-0.09
sI32
F0.54
sI33
F0.43000000000000005
sI34
F-0.97
sI35
F0.75
sI36
F-0.12000000000000005
sI37
F-0.19000000000000003
sI38
F-0.96
sI39
F0.31000000000000005
sI40
F-0.7899999999999999
sI41
F0.09000000000000002
sI42
F1.2600000000000002
sI43
F0.12
sI44
F-0.9500000000000001
ssg5
I0
ssI13
(dp121
g3
(dp122
I0
F0.28
sI1
F-0.7599999999999999
sI2
F-0.5599999999999999
sI3
F-1.01
sI4
F-0.32000000000000006
sI5
F-0.9500000000000001
sI6
F0.3500000000000001
sI7
F-0.20000000000000004
sI8
F0.04000000000000001
sI9
F0.09000000000000001
sI10
F-0.49
sI11
F0.61
sI12
F0.9
sI13
F0.77
sI14
F-0.8300000000000001
sI15
F-0.15000000000000002
sI16
F-0.35
sI17
F0.73
sI18
F-0.14
sI19
F-0.17
sI20
F0.33000000000000007
sI21
F-0.3400000000000001
sI22
F0.24000000000000007
sI23
F-0.23999999999999996
sI24
F0.6000000000000001
sI25
F-0.7400000000000001
sI26
F0.82
sI27
F1.01
sI28
F0.67
sI29
F0.44999999999999996
sI30
F0.6299999999999999
sI31
F1.05
sI32
F-1.3500000000000003
sI33
F1.05
sI34
F-0.17
sI35
F-0.1
sI36
F-0.85
sI37
F0.48
sI38
F0.81
sI39
F0.5800000000000001
sI40
F1.1
sI41
F-0.31999999999999995
sI42
F-0.1
sI43
F0.48
sI44
F-0.56
ssg5
I0
ssI14
(dp123
g3
(dp124
I0
F0.8
sI1
F0.21000000000000005
sI2
F-0.12
sI3
F-0.07
sI4
F-0.37
sI5
F-0.36
sI6
F-1.0899999999999999
sI7
F0.6100000000000001
sI8
F-0.14
sI9
F-0.20000000000000004
sI10
F-0.22000000000000006
sI11
F0.22
sI12
F-0.18000000000000002
sI13
F0.009999999999999981
sI14
F-0.61
sI15
F0.06
sI16
F1.08
sI17
F0.91
sI18
F0.28
sI19
F-0.33
sI20
F-0.09
sI21
F0.16000000000000011
sI22
F-0.64
sI23
F-0.6799999999999999
sI24
F0.23
sI25
F-0.11000000000000004
sI26
F0.9
sI27
F0.58
sI28
F0.9099999999999999
sI29
F0.65
sI30
F-0.6100000000000001
sI31
F-0.09999999999999998
sI32
F0.4
sI33
F-0.66
sI34
F0.19000000000000003
sI35
F-0.5800000000000001
sI36
F0.89
sI37
F-0.4
sI38
F1.08
sI39
F-0.40000000000000013
sI40
F0.39
sI41
F-0.7000000000000001
sI42
F-0.22000000000000006
sI43
F0.12000000000000002
sI44
F0.57
ssg5
I0
ssI15
(dp125
g3
(dp126
I0
F0.8500000000000001
sI1
F-0.7000000000000001
sI2
F0.54
sI3
F0.73
sI4
F0.52
sI5
F0.6
sI6
F0.7900000000000001
sI7
F-0.6000000000000001
sI8
F-0.37
sI9
F-1.07
sI10
F-0.86
sI11
F-0.07999999999999996
sI12
F0.7000000000000001
sI13
F0.06
sI14
F-0.36
sI15
F-0.3700000000000001
sI16
F-0.07
sI17
F-0.12000000000000002
sI18
F-0.92
sI19
F0.39
sI20
F-0.6500000000000001
sI21
F0.56
sI22
F0.87
sI23
F-0.38
sI24
F0.3500000000000001
sI25
F-0.9299999999999999
sI26
F0.42000000000000004
sI27
F-0.51
sI28
F0.6300000000000001
sI29
F0.06
sI30
F-0.07
sI31
F0.87
sI32
F0.33999999999999997
sI33
F-0.44000000000000006
sI34
F-0.33000000000000007
sI35
F-0.15
sI36
F-0.85
sI37
F0.44000000000000006
sI38
F0.9600000000000001
sI39
F0.3800000000000001
sI40
F-0.62
sI41
F0.77
sI42
F0.6399999999999999
sI43
F0.47
sI44
F0.87
ssg5
I0
ssI16
(dp127
g3
(dp128
I0
F-0.8
sI1
F-0.04000000000000001
sI2
F-0.5499999999999999
sI3
F0.26
sI4
F0.5900000000000001
sI5
F0.11
sI6
F0.35
sI7
F-0.79
sI8
F-0.31000000000000005
sI9
F-0.3500000000000001
sI10
F-0.53
sI11
F-0.52
sI12
F-1.4300000000000004
sI13
F-1.3100000000000003
sI14
F-0.11
sI15
F-0.25
sI16
F-0.7100000000000001
sI17
F-0.29000000000000004
sI18
F-0.6000000000000001
sI19
F-0.19000000000000003
sI20
F0.20000000000000004
sI21
F-0.17
sI22
F0.12000000000000002
sI23
F0.85
sI24
F0.45000000000000007
sI25
F-0.85
sI26
F-0.010000000000000009
sI27
F0.8
sI28
F0.25
sI29
F0.12
sI30
F0.6000000000000001
sI31
F0.74
sI32
F0.20000000000000004
sI33
F0.15
sI34
F0.5499999999999999
sI35
F-0.4600000000000001
sI36
F-0.11000000000000001
sI37
F-0.17
sI38
F0.89
sI39
F2.7755575615628914e-17
sI40
F0.24000000000000002
sI41
F-0.53
sI42
F0.14000000000000007
sI43
F-0.42000000000000004
sI44
F0.31000000000000005
ssg5
I0
ssI17
(dp129
g3
(dp130
I0
F1.2500000000000002
sI1
F-0.13
sI2
F1.2000000000000002
sI3
F0.5599999999999999
sI4
F-1.01
sI5
F-0.04999999999999999
sI6
F0.42000000000000004
sI7
F-0.57
sI8
F0.3500000000000001
sI9
F0.66
sI10
F-0.9099999999999999
sI11
F-0.04000000000000001
sI12
F0.78
sI13
F0.43999999999999995
sI14
F0.33000000000000007
sI15
F-0.68
sI16
F0.68
sI17
F-0.24000000000000002
sI18
F0.69
sI19
F0.87
sI20
F0.1
sI21
F0.27
sI22
F0.24000000000000002
sI23
F0.05000000000000002
sI24
F0.4
sI25
F-1.11
sI26
F0.21
sI27
F0.28000000000000014
sI28
F-0.6
sI29
F0.6
sI30
F0.04000000000000001
sI31
F1.05
sI32
F0.27
sI33
F-0.37
sI34
F-0.07
sI35
F0.31000000000000005
sI36
F-0.6
sI37
F-0.15
sI38
F-0.09999999999999998
sI39
F-0.45999999999999996
sI40
F0.5700000000000001
sI41
F0.8
sI42
F-0.38
sI43
F-0.9
sI44
F0.29000000000000004
ssg5
I0
ssI18
(dp131
g3
(dp132
I0
F0.42000000000000004
sI1
F0.0
sI2
F0.88
sI3
F-0.91
sI4
F-0.6100000000000001
sI5
F0.62
sI6
F-1.2100000000000002
sI7
F-0.62
sI8
F0.73
sI9
F0.31000000000000005
sI10
F0.20000000000000004
sI11
F0.63
sI12
F-1.11
sI13
F1.07
sI14
F0.21000000000000005
sI15
F-1.09
sI16
F-0.5900000000000001
sI17
F-0.8400000000000001
sI18
F-0.7999999999999999
sI19
F0.92
sI20
F-0.41000000000000003
sI21
F0.67
sI22
F0.8300000000000001
sI23
F0.77
sI24
F0.87
sI25
F-0.77
sI26
F0.24000000000000007
sI27
F0.56
sI28
F-2.7755575615628914e-17
sI29
F-0.04000000000000001
sI30
F-0.12000000000000005
sI31
F-0.40000000000000013
sI32
F0.42000000000000004
sI33
F0.9800000000000001
sI34
F0.10000000000000003
sI35
F0.56
sI36
F-0.6900000000000001
sI37
F-0.4
sI38
F-0.18000000000000002
sI39
F-0.54
sI40
F0.18000000000000002
sI41
F0.38
sI42
F0.73
sI43
F0.12
sI44
F0.5599999999999999
ssg5
I0
ssI19
(dp133
g3
(dp134
I0
F0.08000000000000002
sI1
F1.07
sI2
F1.1700000000000002
sI3
F-0.78
sI4
F-0.28
sI5
F0.41999999999999993
sI6
F-0.04000000000000001
sI7
F-0.86
sI8
F0.2
sI9
F-0.63
sI10
F0.89
sI11
F0.16
sI12
F0.48
sI13
F-0.76
sI14
F0.5800000000000001
sI15
F0.7300000000000001
sI16
F0.6300000000000001
sI17
F0.81
sI18
F0.22999999999999995
sI19
F-1.2700000000000002
sI20
F-0.03
sI21
F-0.64
sI22
F-1.09
sI23
F-0.15
sI24
F-0.6
sI25
F-0.37
sI26
F-0.5199999999999999
sI27
F0.39
sI28
F-1.06
sI29
F0.5700000000000001
sI30
F-0.45000000000000007
sI31
F-0.8900000000000001
sI32
F1.01
sI33
F0.78
sI34
F0.04000000000000001
sI35
F-0.6799999999999999
sI36
F0.21
sI37
F0.33
sI38
F-0.8
sI39
F0.7400000000000001
sI40
F0.71
sI41
F-0.78
sI42
F0.4600000000000001
sI43
F0.11000000000000001
sI44
F-0.03
ssg5
I0
ssI20
(dp135
g3
(dp136
I0
F-1.1800000000000002
sI1
F0.01999999999999999
sI2
F0.67
sI3
F0.06
sI4
F-0.9600000000000001
sI5
F0.45999999999999996
sI6
F2.7755575615628914e-17
sI7
F-0.51
sI8
F0.5599999999999999
sI9
F-0.12000000000000001
sI10
F-0.77
sI11
F1.02
sI12
F-0.74
sI13
F-0.65
sI14
F0.7
sI15
F-0.010000000000000037
sI16
F0.08000000000000002
sI17
F-0.9
sI18
F0.5900000000000001
sI19
F0.59
sI20
F-0.35
sI21
F-0.8700000000000001
sI22
F-0.22
sI23
F-0.89
sI24
F-0.08999999999999997
sI25
F-0.33
sI26
F-0.9800000000000001
sI27
F0.060000000000000005
sI28
F0.78
sI29
F-0.67
sI30
F0.03
sI31
F0.59
sI32
F-0.04999999999999999
sI33
F-0.7200000000000001
sI34
F0.17
sI35
F-0.9900000000000001
sI36
F0.44000000000000006
sI37
F0.18000000000000002
sI38
F0.07
sI39
F-0.33
sI40
F0.7999999999999999
sI41
F0.41000000000000003
sI42
F-0.85
sI43
F-0.54
sI44
F0.51
ssg5
I0
ssI21
(dp137
g3
(dp138
I0
F0.2
sI1
F0.81
sI2
F0.23
sI3
F0.6100000000000001
sI4
F0.67
sI5
F1.1700000000000002
sI6
F0.6799999999999999
sI7
F0.13
sI8
F-0.27
sI9
F-0.31000000000000016
sI10
F-0.7200000000000001
sI11
F0.72
sI12
F-0.7000000000000001
sI13
F-0.56
sI14
F0.32000000000000006
sI15
F0.45000000000000007
sI16
F0.53
sI17
F-0.73
sI18
F1.1800000000000002
sI19
F0.23
sI20
F-0.07
sI21
F0.77
sI22
F0.33000000000000007
sI23
F-0.3400000000000001
sI24
F-0.61
sI25
F-0.21000000000000005
sI26
F-0.68
sI27
F0.74
sI28
F0.7400000000000001
sI29
F-0.59
sI30
F0.10000000000000003
sI31
F-0.64
sI32
F-0.7200000000000001
sI33
F0.04000000000000001
sI34
F-1.1300000000000001
sI35
F0.9
sI36
F-0.9099999999999999
sI37
F-1.3200000000000003
sI38
F0.49
sI39
F-0.33
sI40
F0.85
sI41
F-0.32
sI42
F-0.1
sI43
F0.54
sI44
F0.3400000000000001
ssg5
I0
ssI22
(dp139
g3
(dp140
I0
F0.54
sI1
F0.36
sI2
F0.01999999999999999
sI3
F0.62
sI4
F-0.04999999999999999
sI5
F0.25
sI6
F-0.18
sI7
F-0.11000000000000001
sI8
F-0.33
sI9
F-0.32000000000000006
sI10
F-0.33999999999999997
sI11
F0.83
sI12
F-1.2200000000000002
sI13
F-0.67
sI14
F0.8
sI15
F0.45999999999999996
sI16
F-0.6200000000000001
sI17
F0.30000000000000004
sI18
F-0.06
sI19
F0.47
sI20
F0.17
sI21
F-0.65
sI22
F-0.6200000000000001
sI23
F-0.87
sI24
F-0.64
sI25
F-0.8
sI26
F0.48
sI27
F-0.27
sI28
F0.4800000000000001
sI29
F0.5700000000000001
sI30
F-0.31
sI31
F0.08000000000000002
sI32
F0.5700000000000001
sI33
F-0.3500000000000001
sI34
F-0.38
sI35
F-0.18000000000000002
sI36
F0.54
sI37
F-0.26
sI38
F0.4900000000000001
sI39
F0.8300000000000001
sI40
F0.9
sI41
F-0.9800000000000001
sI42
F-0.13
sI43
F0.7999999999999999
sI44
F0.37
ssg5
I0
ssI23
(dp141
g3
(dp142
I0
F0.19000000000000003
sI1
F0.07
sI2
F-0.41000000000000003
sI3
F0.42000000000000004
sI4
F-0.7899999999999999
sI5
F0.8400000000000001
sI6
F-1.03
sI7
F-0.04000000000000001
sI8
F0.42000000000000004
sI9
F-0.19
sI10
F-0.19000000000000003
sI11
F-0.03
sI12
F0.18000000000000002
sI13
F0.6100000000000001
sI14
F-0.74
sI15
F-0.65
sI16
F0.31000000000000005
sI17
F-0.69
sI18
F-0.53
sI19
F-0.12000000000000002
sI20
F0.51
sI21
F0.28
sI22
F-0.73
sI23
F-0.37
sI24
F1.2400000000000002
sI25
F-0.3700000000000001
sI26
F-0.75
sI27
F0.2600000000000001
sI28
F-0.1500000000000001
sI29
F-0.9900000000000001
sI30
F0.17
sI31
F-0.37
sI32
F0.67
sI33
F-0.08000000000000002
sI34
F-0.07999999999999999
sI35
F0.14
sI36
F-0.6900000000000001
sI37
F-0.8500000000000001
sI38
F-0.36
sI39
F0.8
sI40
F0.06000000000000005
sI41
F-0.78
sI42
F0.19000000000000003
sI43
F-0.11000000000000004
sI44
F-1.07
ssg5
I0
ssI24
(dp143
g3
(dp144
I0
F-0.03
sI1
F0.18999999999999997
sI2
F0.5
sI3
F0.1
sI4
F-0.12
sI5
F-0.42000000000000004
sI6
F0.55
sI7
F0.16
sI8
F0.43000000000000005
sI9
F-0.67
sI10
F-0.11000000000000001
sI11
F0.03
sI12
F0.03
sI13
F1.1900000000000002
sI14
F0.51
sI15
F0.53
sI16
F-0.51
sI17
F-1.01
sI18
F-0.08000000000000002
sI19
F0.18000000000000002
sI20
F-1.1500000000000001
sI21
F-0.23999999999999996
sI22
F-0.4600000000000001
sI23
F0.5100000000000001
sI24
F-0.6900000000000002
sI25
F-0.13
sI26
F-0.04000000000000001
sI27
F-0.4700000000000001
sI28
F-1.08
sI29
F-0.7000000000000001
sI30
F-0.27
sI31
F-1.09
sI32
F0.52
sI33
F-0.56
sI34
F-0.91
sI35
F-0.35
sI36
F0.56
sI37
F0.6799999999999999
sI38
F-0.65
sI39
F0.41000000000000003
sI40
F0.9900000000000001
sI41
F-0.5599999999999999
sI42
F-0.99
sI43
F-0.21000000000000005
sI44
F0.1500000000000001
ssg5
I0
ssI25
(dp145
g3
(dp146
I0
F-0.72
sI1
F-0.13
sI2
F-0.14000000000000007
sI3
F0.73
sI4
F0.35
sI5
F0.7200000000000001
sI6
F-0.9600000000000001
sI7
F-0.21
sI8
F0.44000000000000006
sI9
F-0.5900000000000001
sI10
F-0.16
sI11
F0.41000000000000003
sI12
F-0.16
sI13
F0.11000000000000001
sI14
F0.19000000000000014
sI15
F-0.39
sI16
F0.47
sI17
F-1.0
sI18
F-0.68
sI19
F-0.92
sI20
F0.6300000000000001
sI21
F-0.63
sI22
F0.10000000000000003
sI23
F0.17
sI24
F-0.40000000000000013
sI25
F0.16
sI26
F-0.86
sI27
F0.7100000000000001
sI28
F0.27
sI29
F0.11
sI30
F0.95
sI31
F-0.42000000000000004
sI32
F-0.62
sI33
F-0.28
sI34
F0.59
sI35
F-0.18
sI36
F-0.35
sI37
F0.96
sI38
F0.8300000000000001
sI39
F0.05
sI40
F1.08
sI41
F0.7500000000000001
sI42
F-0.75
sI43
F0.03
sI44
F-0.51
ssg5
I0
ssI26
(dp147
g3
(dp148
I0
F-0.68
sI1
F-2.7755575615628914e-17
sI2
F0.04000000000000001
sI3
F0.09999999999999998
sI4
F-0.3500000000000001
sI5
F0.06
sI6
F0.55
sI7
F-0.14
sI8
F0.5
sI9
F-0.27
sI10
F-0.16
sI11
F-0.24000000000000002
sI12
F0.5
sI13
F0.64
sI14
F0.16
sI15
F0.23
sI16
F0.91
sI17
F-0.43999999999999995
sI18
F0.9099999999999999
sI19
F0.14
sI20
F-0.22000000000000006
sI21
F0.5700000000000001
sI22
F-0.17000000000000012
sI23
F0.6
sI24
F-0.51
sI25
F-1.0
sI26
F-0.42000000000000004
sI27
F-0.20000000000000004
sI28
F-0.42000000000000004
sI29
F-0.12000000000000002
sI30
F-0.42000000000000004
sI31
F0.63
sI32
F1.1400000000000001
sI33
F1.1300000000000001
sI34
F-0.28
sI35
F-0.4
sI36
F-0.68
sI37
F-0.97
sI38
F0.7400000000000001
sI39
F0.21000000000000005
sI40
F0.8600000000000001
sI41
F0.39
sI42
F0.14000000000000007
sI43
F-0.29000000000000004
sI44
F0.79
ssg5
I0
ssI27
(dp149
g3
(dp150
I0
F-0.09999999999999998
sI1
F0.28
sI2
F-0.5
sI3
F0.55
sI4
F0.7400000000000001
sI5
F-0.82
sI6
F-0.33000000000000007
sI7
F-0.01999999999999999
sI8
F-0.2600000000000001
sI9
F1.1700000000000002
sI10
F-0.99
sI11
F0.36
sI12
F0.97
sI13
F-1.2400000000000002
sI14
F-0.4600000000000001
sI15
F0.84
sI16
F0.8200000000000001
sI17
F-0.7100000000000001
sI18
F-0.79
sI19
F-0.6900000000000002
sI20
F-0.13
sI21
F0.44000000000000006
sI22
F-0.32000000000000006
sI23
F0.12
sI24
F0.9700000000000001
sI25
F0.68
sI26
F-0.10999999999999999
sI27
F0.37
sI28
F-0.05000000000000002
sI29
F-0.04000000000000006
sI30
F-0.49
sI31
F-0.93
sI32
F0.18000000000000002
sI33
F0.68
sI34
F0.22
sI35
F-0.76
sI36
F1.01
sI37
F-0.37
sI38
F0.77
sI39
F-0.18
sI40
F0.20000000000000004
sI41
F-0.30000000000000004
sI42
F0.57
sI43
F0.6
sI44
F0.04000000000000006
ssg5
I0
ssI28
(dp151
g3
(dp152
I0
F0.5800000000000001
sI1
F-0.09
sI2
F-0.86
sI3
F-1.06
sI4
F0.52
sI5
F0.10000000000000003
sI6
F0.20000000000000004
sI7
F-0.41000000000000003
sI8
F-0.5800000000000001
sI9
F-0.27
sI10
F-0.17
sI11
F0.19999999999999998
sI12
F0.88
sI13
F-0.36
sI14
F0.9199999999999999
sI15
F-0.14999999999999997
sI16
F-0.07
sI17
F0.35
sI18
F-0.54
sI19
F1.08
sI20
F0.31999999999999995
sI21
F1.05
sI22
F0.29000000000000004
sI23
F0.7200000000000001
sI24
F0.6100000000000001
sI25
F0.14999999999999997
sI26
F0.7799999999999999
sI27
F-0.5
sI28
F0.51
sI29
F0.37
sI30
F0.3600000000000001
sI31
F-1.1
sI32
F-0.6
sI33
F0.88
sI34
F0.21000000000000005
sI35
F-0.51
sI36
F0.24000000000000002
sI37
F-0.37
sI38
F0.03999999999999998
sI39
F-0.32000000000000006
sI40
F0.55
sI41
F-0.86
sI42
F-0.53
sI43
F-0.18000000000000002
sI44
F-0.9700000000000001
ssg5
I0
ssI29
(dp153
g3
(dp154
I0
F-0.8200000000000001
sI1
F0.78
sI2
F-1.1900000000000002
sI3
F0.8
sI4
F-0.24000000000000002
sI5
F0.3500000000000001
sI6
F0.7
sI7
F-0.51
sI8
F-0.4600000000000001
sI9
F0.83
sI10
F0.9700000000000001
sI11
F-0.14
sI12
F0.26
sI13
F0.20000000000000004
sI14
F-0.22000000000000006
sI15
F-0.72
sI16
F0.45000000000000007
sI17
F0.33
sI18
F-0.82
sI19
F0.41000000000000003
sI20
F0.89
sI21
F1.06
sI22
F0.92
sI23
F0.71
sI24
F-0.13
sI25
F0.06
sI26
F0.61
sI27
F-0.84
sI28
F-0.49
sI29
F-0.24000000000000002
sI30
F-0.7100000000000001
sI31
F-0.9700000000000001
sI32
F1.04
sI33
F0.6200000000000001
sI34
F1.01
sI35
F1.07
sI36
F-1.2000000000000002
sI37
F-0.52
sI38
F-0.76
sI39
F0.33
sI40
F0.5700000000000001
sI41
F-0.010000000000000009
sI42
F-0.4800000000000001
sI43
F-0.74
sI44
F0.020000000000000046
ssg5
I0
ssI30
(dp155
g3
(dp156
I0
F0.74
sI1
F0.83
sI2
F-0.33
sI3
F-0.41000000000000003
sI4
F0.41000000000000003
sI5
F-1.1700000000000002
sI6
F0.53
sI7
F-0.83
sI8
F-0.63
sI9
F0.77
sI10
F0.86
sI11
F0.5599999999999999
sI12
F-0.74
sI13
F0.91
sI14
F-1.1900000000000002
sI15
F-0.09000000000000002
sI16
F0.25
sI17
F0.04999999999999999
sI18
F-0.24000000000000002
sI19
F-0.7799999999999999
sI20
F0.6
sI21
F-0.5900000000000001
sI22
F0.79
sI23
F-0.18
sI24
F-0.16
sI25
F0.24999999999999997
sI26
F0.86
sI27
F0.62
sI28
F-0.79
sI29
F-0.35
sI30
F-0.39
sI31
F-0.08000000000000002
sI32
F-0.41000000000000003
sI33
F0.24000000000000002
sI34
F-0.88
sI35
F0.8
sI36
F0.9700000000000001
sI37
F0.4900000000000001
sI38
F0.76
sI39
F0.63
sI40
F0.51
sI41
F-0.55
sI42
F0.79
sI43
F0.01999999999999999
sI44
F-0.41000000000000003
ssg5
I0
ssI31
(dp157
g3
(dp158
I0
F-0.4600000000000001
sI1
F-0.47
sI2
F-0.26
sI3
F0.63
sI4
F0.37
sI5
F1.2600000000000002
sI6
F0.31000000000000005
sI7
F-0.84
sI8
F-0.86
sI9
F0.9099999999999999
sI10
F0.62
sI11
F0.84
sI12
F-0.78
sI13
F0.94
sI14
F0.7100000000000001
sI15
F-0.19000000000000003
sI16
F-0.05000000000000002
sI17
F-0.39
sI18
F-0.7100000000000001
sI19
F-0.27
sI20
F-0.11
sI21
F-0.020000000000000018
sI22
F0.10000000000000003
sI23
F0.2600000000000001
sI24
F-0.82
sI25
F1.2500000000000002
sI26
F-0.17
sI27
F0.20000000000000004
sI28
F0.97
sI29
F0.98
sI30
F0.67
sI31
F-0.4800000000000001
sI32
F0.12000000000000001
sI33
F0.86
sI34
F0.12
sI35
F0.04000000000000001
sI36
F0.14
sI37
F0.17
sI38
F0.5599999999999999
sI39
F0.6799999999999999
sI40
F0.14999999999999997
sI41
F0.62
sI42
F-0.07
sI43
F-0.41000000000000003
sI44
F0.84
ssg5
I0
ssI32
(dp159
g3
(dp160
I0
F-0.09000000000000001
sI1
F1.03
sI2
F-0.14999999999999997
sI3
F-0.10999999999999999
sI4
F0.64
sI5
F-0.55
sI6
F0.1500000000000001
sI7
F0.03
sI8
F0.75
sI9
F-0.61
sI10
F0.51
sI11
F0.81
sI12
F0.1
sI13
F-1.1600000000000001
sI14
F0.89
sI15
F-0.7000000000000001
sI16
F0.10999999999999999
sI17
F-1.1
sI18
F0.9500000000000001
sI19
F-0.61
sI20
F0.9500000000000001
sI21
F1.1800000000000002
sI22
F-0.39
sI23
F-0.15
sI24
F-0.41000000000000003
sI25
F0.9199999999999999
sI26
F0.84
sI27
F0.09
sI28
F-0.3500000000000001
sI29
F-0.07
sI30
F0.63
sI31
F-0.86
sI32
F-0.9299999999999999
sI33
F-0.9800000000000001
sI34
F0.45999999999999996
sI35
F-0.64
sI36
F0.45999999999999996
sI37
F-0.71
sI38
F-0.7
sI39
F-0.3400000000000001
sI40
F0.96
sI41
F-1.1600000000000001
sI42
F0.15
sI43
F0.12
sI44
F-0.15
ssg5
I0
ssI33
(dp161
g3
(dp162
I0
F-0.18000000000000002
sI1
F-1.12
sI2
F0.2
sI3
F-0.03
sI4
F-1.02
sI5
F1.06
sI6
F0.38
sI7
F0.9
sI8
F1.06
sI9
F-0.6300000000000001
sI10
F-0.07999999999999999
sI11
F0.7799999999999999
sI12
F0.93
sI13
F-0.8800000000000001
sI14
F0.2
sI15
F-0.33000000000000007
sI16
F1.0799999999999998
sI17
F-0.57
sI18
F0.97
sI19
F0.27
sI20
F0.4700000000000001
sI21
F-0.65
sI22
F-0.64
sI23
F-0.49
sI24
F0.6
sI25
F-0.19000000000000003
sI26
F0.55
sI27
F2.7755575615628914e-17
sI28
F-0.44000000000000006
sI29
F0.9
sI30
F0.75
sI31
F-0.3400000000000001
sI32
F0.26
sI33
F-0.14
sI34
F0.37
sI35
F-0.31000000000000005
sI36
F0.7400000000000001
sI37
F1.1800000000000002
sI38
F-0.7000000000000001
sI39
F-0.52
sI40
F-0.78
sI41
F0.43000000000000005
sI42
F-1.5100000000000005
sI43
F0.63
sI44
F-0.5800000000000001
ssg5
I0
ssI34
(dp163
g3
(dp164
I0
F0.3700000000000001
sI1
F0.22
sI2
F0.22
sI3
F0.72
sI4
F-0.52
sI5
F-0.16
sI6
F-1.1700000000000002
sI7
F-0.01999999999999999
sI8
F-0.9
sI9
F0.16
sI10
F-0.39
sI11
F-0.33
sI12
F0.65
sI13
F0.37
sI14
F-0.84
sI15
F-0.03
sI16
F0.12000000000000001
sI17
F-0.36
sI18
F-0.86
sI19
F-0.54
sI20
F0.66
sI21
F-0.31000000000000005
sI22
F0.38
sI23
F-0.17
sI24
F0.22999999999999995
sI25
F-1.3400000000000003
sI26
F-0.34
sI27
F-1.02
sI28
F0.95
sI29
F-0.26
sI30
F0.4800000000000001
sI31
F0.6699999999999999
sI32
F0.10999999999999999
sI33
F-1.02
sI34
F-0.37
sI35
F-0.67
sI36
F-0.26
sI37
F0.24000000000000002
sI38
F-1.01
sI39
F0.16000000000000003
sI40
F-0.9500000000000001
sI41
F0.9
sI42
F-0.22
sI43
F-0.29000000000000004
sI44
F0.49
ssg5
I0
ssI35
(dp165
g3
(dp166
I0
F0.82
sI1
F-0.24000000000000007
sI2
F0.34
sI3
F0.22000000000000006
sI4
F-0.21999999999999995
sI5
F-0.74
sI6
F0.75
sI7
F0.16
sI8
F-0.5000000000000001
sI9
F-0.96
sI10
F0.96
sI11
F0.28
sI12
F-0.13999999999999999
sI13
F0.8400000000000001
sI14
F-0.6300000000000001
sI15
F0.06
sI16
F-0.07
sI17
F0.09000000000000001
sI18
F0.4800000000000001
sI19
F0.4
sI20
F-0.6699999999999999
sI21
F0.020000000000000018
sI22
F0.7500000000000001
sI23
F0.25
sI24
F-0.41000000000000003
sI25
F-0.36
sI26
F0.39
sI27
F-0.08999999999999997
sI28
F0.009999999999999981
sI29
F-0.39
sI30
F0.6900000000000001
sI31
F0.06
sI32
F-0.6900000000000001
sI33
F-0.4
sI34
F-0.55
sI35
F0.21000000000000005
sI36
F0.57
sI37
F-0.97
sI38
F0.93
sI39
F-1.07
sI40
F-0.14
sI41
F0.010000000000000009
sI42
F-0.93
sI43
F-1.08
sI44
F-0.020000000000000046
ssg5
I0
ssI36
(dp167
g3
(dp168
I0
F0.51
sI1
F0.33000000000000007
sI2
F-0.71
sI3
F0.6000000000000001
sI4
F0.69
sI5
F1.07
sI6
F-0.16
sI7
F-0.51
sI8
F0.61
sI9
F0.41000000000000003
sI10
F-0.7300000000000001
sI11
F-1.08
sI12
F0.9
sI13
F-0.87
sI14
F-0.27
sI15
F-0.51
sI16
F1.2200000000000002
sI17
F-0.14
sI18
F0.71
sI19
F-0.33999999999999997
sI20
F0.8200000000000001
sI21
F-0.27
sI22
F0.44000000000000006
sI23
F0.97
sI24
F0.86
sI25
F-0.36
sI26
F0.13
sI27
F0.24000000000000002
sI28
F0.42000000000000004
sI29
F-0.54
sI30
F0.79
sI31
F-0.61
sI32
F0.32
sI33
F-1.01
sI34
F0.32999999999999996
sI35
F-0.88
sI36
F-0.6
sI37
F1.12
sI38
F0.6000000000000001
sI39
F0.2
sI40
F-0.83
sI41
F0.15000000000000002
sI42
F0.72
sI43
F0.51
sI44
F0.33
ssg5
I0
ssI37
(dp169
g3
(dp170
I0
F-0.32
sI1
F0.21000000000000005
sI2
F0.41000000000000003
sI3
F-1.05
sI4
F-0.30000000000000004
sI5
F0.49
sI6
F-0.55
sI7
F0.17
sI8
F-0.99
sI9
F-0.9600000000000001
sI10
F-0.5200000000000001
sI11
F-0.07
sI12
F-1.1900000000000002
sI13
F0.3500000000000001
sI14
F-0.75
sI15
F0.48
sI16
F-0.74
sI17
F0.07
sI18
F-0.15000000000000002
sI19
F-0.4700000000000001
sI20
F0.5700000000000001
sI21
F0.14000000000000007
sI22
F0.45000000000000007
sI23
F-0.34
sI24
F0.04999999999999999
sI25
F0.64
sI26
F-0.71
sI27
F0.47
sI28
F-0.4800000000000001
sI29
F-0.7999999999999999
sI30
F0.23000000000000018
sI31
F0.45999999999999996
sI32
F-0.03
sI33
F-0.84
sI34
F0.020000000000000018
sI35
F0.0
sI36
F-0.04999999999999996
sI37
F0.77
sI38
F0.23
sI39
F-1.1800000000000002
sI40
F0.06
sI41
F0.84
sI42
F0.9500000000000001
sI43
F0.52
sI44
F-0.36
ssg5
I0
ssI38
(dp171
g3
(dp172
I0
F0.5700000000000001
sI1
F0.31000000000000005
sI2
F-0.8400000000000001
sI3
F0.9900000000000001
sI4
F-0.52
sI5
F0.6300000000000001
sI6
F0.33999999999999997
sI7
F0.4
sI8
F0.41000000000000003
sI9
F-0.43000000000000005
sI10
F-1.06
sI11
F0.32000000000000006
sI12
F1.2800000000000002
sI13
F0.9299999999999999
sI14
F0.16
sI15
F0.01
sI16
F-0.8099999999999999
sI17
F-0.3400000000000001
sI18
F-0.72
sI19
F-0.87
sI20
F-1.0
sI21
F0.5499999999999999
sI22
F-0.18999999999999997
sI23
F-0.24000000000000007
sI24
F-0.87
sI25
F0.58
sI26
F0.55
sI27
F0.060000000000000005
sI28
F-0.44000000000000006
sI29
F0.23
sI30
F0.08000000000000002
sI31
F0.0
sI32
F-0.38
sI33
F-0.79
sI34
F1.0
sI35
F-0.48
sI36
F0.6000000000000001
sI37
F-0.4600000000000001
sI38
F0.71
sI39
F-1.1800000000000002
sI40
F-0.08000000000000002
sI41
F0.15000000000000002
sI42
F0.78
sI43
F0.8899999999999999
sI44
F0.18000000000000002
ssg5
I0
ssI39
(dp173
g3
(dp174
I0
F-0.11000000000000004
sI1
F-0.01999999999999999
sI2
F-0.5
sI3
F0.59
sI4
F-0.13
sI5
F0.77
sI6
F-1.05
sI7
F-0.010000000000000009
sI8
F-0.5499999999999999
sI9
F0.62
sI10
F-0.21000000000000005
sI11
F-0.05000000000000002
sI12
F0.5700000000000001
sI13
F-0.7300000000000001
sI14
F0.1
sI15
F-0.41000000000000003
sI16
F0.30000000000000004
sI17
F-0.35
sI18
F0.5000000000000001
sI19
F-0.44999999999999996
sI20
F-0.67
sI21
F0.9400000000000001
sI22
F0.9
sI23
F0.4600000000000001
sI24
F-1.2000000000000002
sI25
F0.9400000000000001
sI26
F0.23999999999999996
sI27
F0.07
sI28
F-0.5900000000000001
sI29
F0.19
sI30
F0.05
sI31
F-0.17
sI32
F-0.18000000000000002
sI33
F-0.6599999999999999
sI34
F-0.48
sI35
F0.14
sI36
F1.1
sI37
F-0.18000000000000002
sI38
F-0.3400000000000001
sI39
F-1.02
sI40
F-0.04999999999999996
sI41
F-1.1
sI42
F0.21000000000000005
sI43
F-0.3400000000000001
sI44
F0.8400000000000001
ssg5
I0
ssI40
(dp175
g3
(dp176
I0
F0.009999999999999995
sI1
F-0.29000000000000004
sI2
F0.1
sI3
F0.24000000000000007
sI4
F0.13999999999999996
sI5
F0.15
sI6
F-0.26
sI7
F0.13
sI8
F0.7000000000000001
sI9
F0.91
sI10
F0.12000000000000002
sI11
F-0.59
sI12
F0.5800000000000001
sI13
F0.8500000000000001
sI14
F0.11000000000000001
sI15
F0.43000000000000005
sI16
F-0.74
sI17
F0.18000000000000002
sI18
F0.5700000000000001
sI19
F-0.37
sI20
F0.09000000000000002
sI21
F-0.7400000000000001
sI22
F0.8099999999999999
sI23
F-0.7899999999999999
sI24
F0.9900000000000001
sI25
F1.0
sI26
F-0.39
sI27
F0.79
sI28
F-0.39
sI29
F0.6900000000000001
sI30
F-0.71
sI31
F0.009999999999999981
sI32
F-0.16000000000000011
sI33
F0.08
sI34
F-0.4700000000000001
sI35
F-0.6
sI36
F0.45000000000000007
sI37
F-0.19999999999999998
sI38
F-0.79
sI39
F-1.2500000000000002
sI40
F-1.1600000000000001
sI41
F0.5700000000000001
sI42
F-0.3500000000000001
sI43
F0.4600000000000001
sI44
F-0.83
ssg5
I0
ssI41
(dp177
g3
(dp178
I0
F-0.96
sI1
F0.9500000000000001
sI2
F-0.63
sI3
F0.43000000000000016
sI4
F0.6900000000000001
sI5
F-0.7700000000000001
sI6
F1.1
sI7
F0.23
sI8
F-0.89
sI9
F0.36
sI10
F-0.14
sI11
F-0.06
sI12
F-1.2800000000000002
sI13
F-0.81
sI14
F0.05000000000000002
sI15
F-0.62
sI16
F0.64
sI17
F-0.3400000000000001
sI18
F-0.86
sI19
F1.2900000000000003
sI20
F-0.13000000000000006
sI21
F-1.3900000000000003
sI22
F0.24000000000000002
sI23
F0.92
sI24
F0.22999999999999995
sI25
F-0.3800000000000001
sI26
F-0.3700000000000001
sI27
F-0.27
sI28
F-0.21
sI29
F-0.07
sI30
F-0.8
sI31
F-0.12000000000000002
sI32
F-0.7100000000000001
sI33
F-0.6500000000000001
sI34
F0.44000000000000006
sI35
F0.83
sI36
F0.2600000000000001
sI37
F-0.9400000000000001
sI38
F0.6900000000000001
sI39
F0.71
sI40
F-0.8899999999999999
sI41
F-0.41000000000000003
sI42
F-0.44999999999999996
sI43
F-0.060000000000000026
sI44
F-0.99
ssg5
I0
ssI42
(dp179
g3
(dp180
I0
F0.41000000000000003
sI1
F0.28
sI2
F-0.85
sI3
F0.7999999999999999
sI4
F-0.5900000000000001
sI5
F-0.16
sI6
F-0.63
sI7
F-0.64
sI8
F-0.32
sI9
F0.24999999999999997
sI10
F-0.63
sI11
F-0.34
sI12
F-0.61
sI13
F0.01999999999999999
sI14
F0.33
sI15
F0.5400000000000001
sI16
F-0.4700000000000001
sI17
F0.9500000000000001
sI18
F-0.6499999999999999
sI19
F0.19000000000000003
sI20
F0.30000000000000004
sI21
F0.85
sI22
F0.22000000000000006
sI23
F-0.01999999999999999
sI24
F-0.04000000000000001
sI25
F0.24000000000000002
sI26
F0.4
sI27
F-0.19000000000000003
sI28
F-0.41000000000000003
sI29
F0.21
sI30
F0.1500000000000001
sI31
F-0.7
sI32
F0.84
sI33
F1.1
sI34
F-0.6000000000000001
sI35
F0.05000000000000002
sI36
F-0.19999999999999998
sI37
F-0.35
sI38
F-0.88
sI39
F-0.85
sI40
F-1.12
sI41
F-0.8900000000000001
sI42
F0.5
sI43
F0.53
sI44
F-0.35
ssg5
I0
ssI43
(dp181
g3
(dp182
I0
F0.85
sI1
F-0.10999999999999999
sI2
F0.86
sI3
F-1.03
sI4
F0.7400000000000001
sI5
F-1.2300000000000002
sI6
F-0.82
sI7
F-0.44999999999999996
sI8
F0.11000000000000001
sI9
F0.52
sI10
F0.5
sI11
F-0.66
sI12
F0.38
sI13
F-0.33
sI14
F0.6900000000000001
sI15
F0.30000000000000004
sI16
F0.84
sI17
F0.5500000000000002
sI18
F-0.29000000000000004
sI19
F-0.15
sI20
F-0.63
sI21
F-0.85
sI22
F0.33999999999999997
sI23
F0.03
sI24
F0.5900000000000002
sI25
F0.63
sI26
F0.58
sI27
F0.59
sI28
F-0.36
sI29
F0.28
sI30
F-0.31999999999999995
sI31
F1.01
sI32
F0.6900000000000001
sI33
F0.10000000000000003
sI34
F-0.5
sI35
F-0.08000000000000002
sI36
F-0.07
sI37
F-0.67
sI38
F-0.16
sI39
F0.78
sI40
F-0.009999999999999981
sI41
F0.18000000000000002
sI42
F-0.06
sI43
F-0.65
sI44
F0.58
ssg5
I0
ssI44
(dp183
g3
(dp184
I0
F0.52
sI1
F-0.7200000000000001
sI2
F-0.23
sI3
F-1.3800000000000003
sI4
F0.9
sI5
F1.4100000000000004
sI6
F0.44999999999999996
sI7
F0.32
sI8
F0.44000000000000006
sI9
F0.9700000000000001
sI10
F0.82
sI11
F-1.1400000000000001
sI12
F-0.08000000000000002
sI13
F-1.04
sI14
F1.3500000000000003
sI15
F0.25
sI16
F-0.12000000000000002
sI17
F0.5
sI18
F0.28
sI19
F0.2600000000000001
sI20
F1.1900000000000002
sI21
F0.39
sI22
F-0.14999999999999997
sI23
F-0.24999999999999997
sI24
F0.4
sI25
F0.6799999999999999
sI26
F0.93
sI27
F-1.04
sI28
F0.92
sI29
F-0.06
sI30
F0.03
sI31
F-0.01999999999999999
sI32
F0.42000000000000015
sI33
F0.7600000000000001
sI34
F-0.16
sI35
F-0.11000000000000001
sI36
F0.55
sI37
F0.21000000000000002
sI38
F0.86
sI39
F-0.53
sI40
F-0.08000000000000002
sI41
F0.37
sI42
F-0.30000000000000004
sI43
F0.93
sI44
F0.62
ssg5
I0
ssI45
(dp185
g3
(dp186
I0
F1.5000000000000004
sI1
F0.0
sI2
F0.08000000000000002
sI3
F-0.5700000000000001
sI4
F0.65
sI5
F0.47
sI6
F-0.13
sI7
F-1.2000000000000002
sI8
F-0.48
sI9
F0.3500000000000001
sI10
F0.8300000000000001
sI11
F0.66
sI12
F-0.16
sI13
F-0.89
sI14
F-0.65
sI15
F-0.03
sI16
F0.38
sI17
F-0.9799999999999999
sI18
F0.96
sI19
F-0.28
sI20
F-0.42000000000000004
sI21
F0.22000000000000006
sI22
F0.03
sI23
F-0.21000000000000005
sI24
F0.78
sI25
F-0.54
sI26
F0.04000000000000001
sI27
F0.1500000000000001
sI28
F0.39
sI29
F0.30000000000000004
sI30
F0.81
sI31
F-0.6699999999999999
sI32
F-1.08
sI33
F0.28
sI34
F-0.85
sI35
F1.2100000000000002
sI36
F0.12
sI37
F0.009999999999999995
sI38
F0.17
sI39
F-0.38
sI40
F0.66
sI41
F0.37
sI42
F0.4700000000000001
sI43
F0.07
sI44
F-0.10999999999999999
ssg5
I0
ssI46
(dp187
g3
(dp188
I0
F0.4700000000000001
sI1
F-0.18
sI2
F1.06
sI3
F-0.9
sI4
F-0.26
sI5
F0.58
sI6
F-0.8
sI7
F0.62
sI8
F-0.74
sI9
F0.25
sI10
F-0.67
sI11
F-0.43000000000000005
sI12
F-0.41000000000000003
sI13
F0.30000000000000004
sI14
F0.4900000000000001
sI15
F0.03
sI16
F0.1
sI17
F-0.4
sI18
F0.04000000000000001
sI19
F-0.44000000000000006
sI20
F0.64
sI21
F0.85
sI22
F0.18
sI23
F0.8800000000000001
sI24
F-0.07
sI25
F0.32000000000000006
sI26
F0.26
sI27
F-0.5000000000000001
sI28
F0.7800000000000001
sI29
F0.64
sI30
F0.98
sI31
F0.14
sI32
F-0.52
sI33
F-0.76
sI34
F1.1800000000000002
sI35
F-0.6400000000000001
sI36
F0.96
sI37
F1.08
sI38
F0.9
sI39
F0.79
sI40
F-0.5900000000000001
sI41
F-0.05000000000000002
sI42
F-0.95
sI43
F-0.5000000000000001
sI44
F-0.29000000000000004
ssg5
I0
ssI47
(dp189
g3
(dp190
I0
F0.43000000000000005
sI1
F0.06
sI2
F-0.64
sI3
F-0.65
sI4
F0.04000000000000001
sI5
F-0.42000000000000004
sI6
F-0.48
sI7
F-0.37
sI8
F0.9
sI9
F-0.84
sI10
F-1.03
sI11
F-0.8200000000000001
sI12
F-0.04000000000000001
sI13
F-0.16
sI14
F0.56
sI15
F-0.10000000000000003
sI16
F0.15000000000000002
sI17
F-0.42000000000000004
sI18
F0.8300000000000001
sI19
F0.2600000000000001
sI20
F0.9
sI21
F0.9500000000000001
sI22
F0.65
sI23
F-0.9199999999999999
sI24
F-0.9400000000000001
sI25
F-0.42000000000000015
sI26
F-0.73
sI27
F0.11000000000000001
sI28
F-0.11
sI29
F0.7899999999999999
sI30
F0.51
sI31
F0.5200000000000001
sI32
F0.66
sI33
F0.3400000000000001
sI34
F0.7999999999999999
sI35
F0.53
sI36
F1.04
sI37
F-0.43000000000000005
sI38
F0.27
sI39
F0.98
sI40
F-0.44000000000000006
sI41
F-0.35
sI42
F-0.44000000000000006
sI43
F-0.8
sI44
F1.2200000000000002
ssg5
I0
ssI48
(dp191
g3
(dp192
I0
F-0.5900000000000001
sI1
F-1.2000000000000002
sI2
F-1.2400000000000002
sI3
F-0.51
sI4
F0.96
sI5
F-0.76
sI6
F-0.27000000000000013
sI7
F-1.01
sI8
F-0.009999999999999981
sI9
F0.32
sI10
F0.54
sI11
F-1.03
sI12
F0.5200000000000001
sI13
F0.39
sI14
F-0.009999999999999981
sI15
F-0.92
sI16
F0.2
sI17
F-1.09
sI18
F-0.9
sI19
F0.78
sI20
F0.67
sI21
F0.05000000000000002
sI22
F0.04999999999999999
sI23
F-0.75
sI24
F0.27
sI25
F0.07
sI26
F-0.5800000000000001
sI27
F0.24000000000000002
sI28
F0.07
sI29
F0.8800000000000001
sI30
F0.43000000000000005
sI31
F-0.9500000000000001
sI32
F-0.24000000000000007
sI33
F0.15000000000000002
sI34
F0.14
sI35
F0.42000000000000004
sI36
F0.03
sI37
F0.77
sI38
F0.2500000000000001
sI39
F-0.9299999999999999
sI40
F-0.6799999999999999
sI41
F-0.8700000000000001
sI42
F-0.62
sI43
F-0.13000000000000006
sI44
F-0.3400000000000001
ssg5
I0
ssI49
(dp193
g3
(dp194
I0
F0.6699999999999999
sI1
F-0.1
sI2
F-1.1
sI3
F-0.65
sI4
F1.2000000000000002
sI5
F0.49
sI6
F-0.01999999999999999
sI7
F0.9099999999999999
sI8
F-0.18000000000000002
sI9
F0.92
sI10
F-0.27
sI11
F0.8099999999999999
sI12
F-0.63
sI13
F-0.71
sI14
F1.1
sI15
F-0.56
sI16
F0.71
sI17
F0.06
sI18
F0.86
sI19
F0.65
sI20
F-0.49
sI21
F-0.2600000000000001
sI22
F-0.83
sI23
F0.04000000000000001
sI24
F-1.0899999999999999
sI25
F-0.38
sI26
F0.04000000000000001
sI27
F0.3400000000000001
sI28
F1.2700000000000002
sI29
F0.6100000000000001
sI30
F0.33000000000000007
sI31
F0.36
sI32
F1.1
sI33
F1.1800000000000002
sI34
F-0.01999999999999999
sI35
F0.56
sI36
F0.28
sI37
F-0.07
sI38
F0.92
sI39
F-0.74
sI40
F0.59
sI41
F0.04000000000000001
sI42
F-0.98
sI43
F-0.8099999999999999
sI44
F-0.30000000000000004
ssg5
I0
ssI50
(dp195
g3
(dp196
I0
F0.09000000000000001
sI1
F0.6
sI2
F0.18000000000000002
sI3
F-0.7800000000000001
sI4
F0.77
sI5
F0.65
sI6
F-0.9800000000000001
sI7
F0.09
sI8
F0.9
sI9
F-0.85
sI10
F0.7100000000000001
sI11
F-0.7100000000000001
sI12
F-0.26
sI13
F-1.06
sI14
F0.84
sI15
F0.68
sI16
F0.12
sI17
F-0.41000000000000003
sI18
F0.61
sI19
F0.010000000000000009
sI20
F0.74
sI21
F1.07
sI22
F1.09
sI23
F-0.14
sI24
F-0.45000000000000007
sI25
F0.5200000000000001
sI26
F-0.21000000000000005
sI27
F0.48
sI28
F-0.27
sI29
F-0.41000000000000003
sI30
F-0.28
sI31
F-1.0
sI32
F0.4600000000000001
sI33
F1.02
sI34
F-0.6900000000000001
sI35
F-1.1
sI36
F0.7899999999999999
sI37
F-0.22999999999999995
sI38
F-0.13
sI39
F-0.8099999999999999
sI40
F-0.16
sI41
F0.8400000000000001
sI42
F0.01999999999999999
sI43
F0.43000000000000005
sI44
F-0.13
ssg5
I0
ssI51
(dp197
g3
(dp198
I0
F0.20000000000000004
sI1
F0.55
sI2
F0.43000000000000005
sI3
F0.9600000000000001
sI4
F0.47
sI5
F-0.010000000000000009
sI6
F-0.68
sI7
F-0.08000000000000002
sI8
F0.4700000000000001
sI9
F-0.1
sI10
F-1.03
sI11
F-0.06
sI12
F-0.6799999999999999
sI13
F-0.5800000000000001
sI14
F-0.7999999999999999
sI15
F0.67
sI16
F-0.76
sI17
F0.53
sI18
F-1.0
sI19
F-0.35
sI20
F0.13
sI21
F0.19000000000000003
sI22
F0.51
sI23
F-0.29000000000000004
sI24
F-1.04
sI25
F-0.05000000000000002
sI26
F-0.62
sI27
F0.17
sI28
F0.98
sI29
F-0.51
sI30
F1.1300000000000001
sI31
F-0.19000000000000003
sI32
F-0.54
sI33
F-0.01999999999999999
sI34
F0.10000000000000003
sI35
F0.73
sI36
F0.67
sI37
F0.14
sI38
F-0.009999999999999981
sI39
F0.65
sI40
F-0.48
sI41
F-0.7100000000000001
sI42
F-0.5599999999999999
sI43
F0.20000000000000004
sI44
F1.05
ssg5
I0
ssI52
(dp199
g3
(dp200
I0
F0.54
sI1
F-0.93
sI2
F0.9900000000000001
sI3
F0.07000000000000006
sI4
F-0.5900000000000001
sI5
F-0.4900000000000001
sI6
F-0.2600000000000001
sI7
F1.1700000000000002
sI8
F-0.85
sI9
F0.31000000000000005
sI10
F0.010000000000000037
sI11
F-0.42000000000000004
sI12
F0.5000000000000001
sI13
F-0.41000000000000003
sI14
F-0.39
sI15
F0.9400000000000001
sI16
F-0.4600000000000001
sI17
F1.1
sI18
F0.89
sI19
F0.66
sI20
F-0.32000000000000006
sI21
F-0.42000000000000004
sI22
F0.63
sI23
F-0.9800000000000001
sI24
F0.22000000000000006
sI25
F0.43000000000000005
sI26
F-0.91
sI27
F0.21
sI28
F-0.07999999999999999
sI29
F0.66
sI30
F-0.05000000000000002
sI31
F-0.03
sI32
F-0.21000000000000005
sI33
F0.28
sI34
F-0.6000000000000001
sI35
F0.74
sI36
F0.14000000000000007
sI37
F0.42000000000000004
sI38
F-0.52
sI39
F-0.99
sI40
F-0.91
sI41
F-0.27
sI42
F0.8200000000000001
sI43
F0.37
sI44
F-0.11000000000000004
ssg5
I0
ssI53
(dp201
g3
(dp202
I0
F0.85
sI1
F0.28
sI2
F0.12000000000000001
sI3
F1.1500000000000001
sI4
F-0.31000000000000005
sI5
F0.86
sI6
F-0.16000000000000011
sI7
F-0.36
sI8
F-0.8200000000000001
sI9
F-0.24999999999999997
sI10
F-0.56
sI11
F-0.28
sI12
F-0.44999999999999996
sI13
F-0.24000000000000002
sI14
F0.30000000000000004
sI15
F0.28
sI16
F-1.1
sI17
F0.23999999999999996
sI18
F-0.45999999999999996
sI19
F0.1
sI20
F-0.9799999999999999
sI21
F0.06
sI22
F0.18000000000000002
sI23
F-0.94
sI24
F0.96
sI25
F0.73
sI26
F0.26
sI27
F-0.92
sI28
F-0.32000000000000006
sI29
F-0.89
sI30
F-0.66
sI31
F0.17
sI32
F-0.23
sI33
F-0.1500000000000001
sI34
F0.04000000000000001
sI35
F0.89
sI36
F0.95
sI37
F0.4800000000000001
sI38
F0.62
sI39
F-0.6300000000000001
sI40
F-1.04
sI41
F0.13000000000000006
sI42
F0.22000000000000006
sI43
F2.7755575615628914e-17
sI44
F-1.1300000000000001
ssg5
I0
ssI54
(dp203
g3
(dp204
I0
F0.31000000000000005
sI1
F0.2
sI2
F-0.85
sI3
F-0.47
sI4
F-0.27
sI5
F-1.11
sI6
F-0.20000000000000015
sI7
F1.01
sI8
F1.1
sI9
F0.15000000000000002
sI10
F-1.04
sI11
F1.1700000000000002
sI12
F-0.81
sI13
F0.30000000000000004
sI14
F0.09
sI15
F0.36
sI16
F0.98
sI17
F-0.2500000000000001
sI18
F-0.49
sI19
F-0.53
sI20
F-0.6499999999999999
sI21
F-0.30000000000000004
sI22
F-0.8900000000000001
sI23
F0.20000000000000004
sI24
F0.59
sI25
F1.1
sI26
F-0.63
sI27
F0.47
sI28
F0.72
sI29
F-0.38
sI30
F0.38
sI31
F0.54
sI32
F0.39
sI33
F0.72
sI34
F0.5499999999999999
sI35
F0.58
sI36
F0.51
sI37
F-0.3400000000000001
sI38
F0.75
sI39
F-0.10000000000000003
sI40
F-0.8800000000000001
sI41
F-0.4
sI42
F0.009999999999999981
sI43
F-0.92
sI44
F0.04000000000000001
ssg5
I0
ssI55
(dp205
g3
(dp206
I0
F-0.20000000000000004
sI1
F-0.31000000000000005
sI2
F0.54
sI3
F-0.06
sI4
F-0.64
sI5
F-0.23000000000000007
sI6
F0.63
sI7
F-0.55
sI8
F0.029999999999999943
sI9
F-1.1800000000000002
sI10
F0.07
sI11
F-0.28
sI12
F0.1500000000000001
sI13
F-0.17
sI14
F-0.3700000000000001
sI15
F-0.66
sI16
F-0.52
sI17
F0.43000000000000005
sI18
F-0.24999999999999997
sI19
F0.38
sI20
F-0.18000000000000002
sI21
F-0.94
sI22
F-0.52
sI23
F0.79
sI24
F-0.93
sI25
F0.19
sI26
F0.92
sI27
F-0.42000000000000004
sI28
F-0.8300000000000001
sI29
F0.8800000000000001
sI30
F0.5700000000000001
sI31
F0.7700000000000001
sI32
F0.15
sI33
F0.91
sI34
F-0.93
sI35
F0.51
sI36
F-0.5300000000000001
sI37
F-0.99
sI38
F-0.81
sI39
F-0.72
sI40
F-0.6900000000000001
sI41
F0.73
sI42
F0.44999999999999996
sI43
F-0.09000000000000002
sI44
F-1.07
ssg5
I0
ssI56
(dp207
g3
(dp208
I0
F0.76
sI1
F0.59
sI2
F1.2300000000000002
sI3
F0.86
sI4
F0.06
sI5
F0.87
sI6
F0.14
sI7
F-0.95
sI8
F0.65
sI9
F-0.09
sI10
F-0.7200000000000001
sI11
F1.07
sI12
F-1.07
sI13
F-0.16
sI14
F0.67
sI15
F0.18000000000000002
sI16
F0.009999999999999995
sI17
F-0.08000000000000002
sI18
F-0.84
sI19
F0.82
sI20
F-0.3400000000000001
sI21
F0.8
sI22
F0.59
sI23
F0.33
sI24
F-0.71
sI25
F-1.06
sI26
F-0.82
sI27
F0.69
sI28
F0.76
sI29
F1.07
sI30
F0.48
sI31
F1.11
sI32
F-0.82
sI33
F-0.78
sI34
F0.18000000000000013
sI35
F-0.3900000000000001
sI36
F0.59
sI37
F0.07999999999999999
sI38
F1.0
sI39
F0.5700000000000001
sI40
F0.47
sI41
F-0.7799999999999999
sI42
F-0.71
sI43
F0.79
sI44
F0.21000000000000005
ssg5
I0
ssI57
(dp209
g3
(dp210
I0
F-1.07
sI1
F0.19
sI2
F-0.9299999999999999
sI3
F-0.6799999999999999
sI4
F0.31000000000000005
sI5
F0.44999999999999996
sI6
F-0.6000000000000001
sI7
F-0.44000000000000006
sI8
F0.9
sI9
F0.22
sI10
F0.36
sI11
F-0.64
sI12
F-0.19
sI13
F-1.2400000000000002
sI14
F-0.12
sI15
F-0.77
sI16
F-0.07999999999999999
sI17
F-0.56
sI18
F-0.15
sI19
F0.98
sI20
F-0.61
sI21
F0.68
sI22
F-0.48
sI23
F-0.76
sI24
F0.41000000000000003
sI25
F-0.010000000000000009
sI26
F-0.16
sI27
F-0.68
sI28
F0.35
sI29
F-0.9500000000000001
sI30
F0.9700000000000001
sI31
F0.45000000000000007
sI32
F0.73
sI33
F0.61
sI34
F-0.41000000000000003
sI35
F0.8
sI36
F0.38
sI37
F-0.51
sI38
F0.79
sI39
F-0.44000000000000006
sI40
F-1.0
sI41
F-0.37
sI42
F-0.7200000000000001
sI43
F-0.22000000000000006
sI44
F-0.85
ssg5
I0
ssI58
(dp211
g3
(dp212
I0
F0.44000000000000006
sI1
F-0.97
sI2
F0.06
sI3
F0.23999999999999996
sI4
F0.07
sI5
F-1.07
sI6
F0.56
sI7
F0.79
sI8
F-0.29000000000000004
sI9
F0.4700000000000001
sI10
F0.009999999999999981
sI11
F-0.77
sI12
F0.7000000000000001
sI13
F0.9500000000000001
sI14
F0.9299999999999999
sI15
F-0.09000000000000002
sI16
F0.13
sI17
F1.06
sI18
F-0.8
sI19
F0.38
sI20
F0.18000000000000002
sI21
F-0.38
sI22
F-0.6799999999999999
sI23
F0.30000000000000004
sI24
F-0.08
sI25
F0.6900000000000001
sI26
F-0.41000000000000003
sI27
F0.33000000000000007
sI28
F0.9299999999999999
sI29
F0.74
sI30
F-0.82
sI31
F0.6100000000000001
sI32
F-1.1800000000000002
sI33
F-0.2600000000000001
sI34
F0.5199999999999999
sI35
F0.7000000000000001
sI36
F-0.92
sI37
F0.20000000000000004
sI38
F-0.9
sI39
F-1.05
sI40
F-0.6799999999999999
sI41
F0.9899999999999999
sI42
F-0.16
sI43
F-0.41000000000000003
sI44
F-0.41000000000000003
ssg5
I0
ssI59
(dp213
g3
(dp214
I0
F0.31000000000000005
sI1
F-0.33999999999999997
sI2
F-0.33999999999999997
sI3
F0.3400000000000001
sI4
F0.23
sI5
F0.44000000000000006
sI6
F-0.42000000000000004
sI7
F0.06
sI8
F0.88
sI9
F-0.7300000000000001
sI10
F0.43999999999999995
sI11
F-0.01999999999999999
sI12
F0.33000000000000007
sI13
F-0.09
sI14
F0.59
sI15
F0.0500000000000001
sI16
F0.79
sI17
F-0.4600000000000001
sI18
F0.86
sI19
F-0.49
sI20
F0.08000000000000002
sI21
F-0.49
sI22
F-0.54
sI23
F-0.54
sI24
F0.9799999999999999
sI25
F-0.9299999999999999
sI26
F-0.9500000000000001
sI27
F-0.9900000000000001
sI28
F0.63
sI29
F0.5
sI30
F-0.81
sI31
F0.8300000000000001
sI32
F0.25
sI33
F0.57
sI34
F0.020000000000000018
sI35
F0.15000000000000002
sI36
F0.27
sI37
F0.17
sI38
F-0.20000000000000004
sI39
F-0.48
sI40
F1.12
sI41
F0.15000000000000002
sI42
F0.8400000000000001
sI43
F-0.23000000000000007
sI44
F0.32000000000000006
ssg5
I0
ssI60
(dp215
g3
(dp216
I0
F0.13
sI1
F0.52
sI2
F0.3700000000000001
sI3
F-1.1700000000000002
sI4
F-0.44999999999999996
sI5
F-0.17
sI6
F-0.16
sI7
F-0.7100000000000001
sI8
F-0.92
sI9
F-0.53
sI10
F0.99
sI11
F-0.38
sI12
F-0.3700000000000001
sI13
F-0.3400000000000001
sI14
F-0.7300000000000001
sI15
F0.55
sI16
F-0.79
sI17
F-0.12000000000000002
sI18
F-0.39
sI19
F-0.74
sI20
F0.17
sI21
F0.49
sI22
F1.2600000000000002
sI23
F-0.78
sI24
F0.9900000000000001
sI25
F-0.7000000000000001
sI26
F0.23999999999999996
sI27
F0.020000000000000018
sI28
F0.59
sI29
F0.13
sI30
F-0.87
sI31
F0.79
sI32
F-1.0999999999999999
sI33
F0.22000000000000006
sI34
F0.67
sI35
F0.07999999999999999
sI36
F0.54
sI37
F-0.2500000000000001
sI38
F0.29000000000000004
sI39
F-0.65
sI40
F-0.009999999999999981
sI41
F-0.04999999999999996
sI42
F-0.33000000000000007
sI43
F-0.3600000000000001
sI44
F0.96
ssg5
I0
ssI61
(dp217
g3
(dp218
I0
F0.3400000000000001
sI1
F-0.77
sI2
F-0.68
sI3
F-0.8400000000000001
sI4
F0.56
sI5
F-0.9400000000000001
sI6
F0.93
sI7
F0.24000000000000002
sI8
F0.98
sI9
F-0.13999999999999996
sI10
F-0.62
sI11
F-0.6000000000000001
sI12
F0.44000000000000006
sI13
F-0.78
sI14
F-0.53
sI15
F0.28
sI16
F0.0
sI17
F0.10000000000000003
sI18
F1.2500000000000002
sI19
F-0.41000000000000003
sI20
F-0.63
sI21
F-0.09000000000000002
sI22
F0.0
sI23
F-0.20000000000000004
sI24
F0.23000000000000007
sI25
F-0.81
sI26
F0.14
sI27
F0.8300000000000001
sI28
F0.82
sI29
F0.6900000000000001
sI30
F-0.44000000000000006
sI31
F-0.31000000000000005
sI32
F-0.3400000000000001
sI33
F0.7
sI34
F-0.8
sI35
F-0.7999999999999999
sI36
F-0.45000000000000007
sI37
F-0.27
sI38
F-0.35
sI39
F-0.4900000000000001
sI40
F0.63
sI41
F1.03
sI42
F-0.45999999999999996
sI43
F0.54
sI44
F-0.13
ssg5
I0
ssI62
(dp219
g3
(dp220
I0
F0.33000000000000007
sI1
F0.23
sI2
F-0.94
sI3
F-0.19999999999999998
sI4
F0.8400000000000001
sI5
F-0.55
sI6
F0.37
sI7
F0.47
sI8
F0.48
sI9
F-0.3700000000000001
sI10
F0.6000000000000001
sI11
F1.2600000000000002
sI12
F-0.4900000000000001
sI13
F-0.53
sI14
F-1.12
sI15
F0.18999999999999997
sI16
F0.88
sI17
F-0.03
sI18
F0.21
sI19
F-0.59
sI20
F0.48
sI21
F0.30000000000000004
sI22
F0.10999999999999999
sI23
F-0.40000000000000013
sI24
F1.0
sI25
F-0.5800000000000001
sI26
F-0.7000000000000001
sI27
F-0.58
sI28
F0.8200000000000001
sI29
F-1.12
sI30
F-1.06
sI31
F-0.14
sI32
F-0.45000000000000007
sI33
F-1.03
sI34
F-0.31000000000000005
sI35
F-0.65
sI36
F-0.48
sI37
F-0.9
sI38
F-0.010000000000000009
sI39
F-0.38
sI40
F0.65
sI41
F0.7799999999999999
sI42
F-0.29000000000000004
sI43
F0.7
sI44
F0.07
ssg5
I0
ssI63
(dp221
g3
(dp222
I0
F-1.01
sI1
F0.37
sI2
F-0.66
sI3
F0.65
sI4
F0.5599999999999999
sI5
F-0.30000000000000004
sI6
F-0.1
sI7
F-0.47
sI8
F0.7900000000000001
sI9
F0.17
sI10
F0.26
sI11
F0.58
sI12
F-0.4
sI13
F0.9800000000000001
sI14
F1.0
sI15
F0.43000000000000005
sI16
F-0.29000000000000004
sI17
F0.99
sI18
F0.22
sI19
F0.74
sI20
F0.63
sI21
F-0.66
sI22
F-0.04000000000000001
sI23
F-0.32000000000000006
sI24
F0.13
sI25
F0.68
sI26
F0.1
sI27
F-0.62
sI28
F-0.8799999999999999
sI29
F-1.0
sI30
F0.16
sI31
F0.17
sI32
F0.09000000000000001
sI33
F-0.38
sI34
F-0.26
sI35
F0.29000000000000004
sI36
F0.29
sI37
F-0.84
sI38
F-0.71
sI39
F0.42000000000000004
sI40
F0.76
sI41
F-0.1
sI42
F-0.95
sI43
F-0.21
sI44
F0.67
ssg5
I0
ssI64
(dp223
g3
(dp224
I0
F-0.2
sI1
F0.77
sI2
F0.2
sI3
F-0.2600000000000001
sI4
F-1.12
sI5
F-0.8700000000000001
sI6
F0.54
sI7
F0.31000000000000005
sI8
F0.55
sI9
F-0.24999999999999997
sI10
F0.9
sI11
F0.01999999999999999
sI12
F0.17
sI13
F0.45000000000000007
sI14
F0.15000000000000002
sI15
F-1.12
sI16
F0.47
sI17
F-0.07
sI18
F0.56
sI19
F0.3900000000000001
sI20
F-0.21000000000000005
sI21
F0.71
sI22
F-0.78
sI23
F0.85
sI24
F0.4700000000000001
sI25
F-0.78
sI26
F0.20000000000000004
sI27
F0.20000000000000004
sI28
F0.5
sI29
F-1.1600000000000001
sI30
F0.65
sI31
F0.31
sI32
F-0.51
sI33
F0.24000000000000007
sI34
F1.2000000000000002
sI35
F0.42000000000000004
sI36
F-0.09000000000000002
sI37
F0.04000000000000001
sI38
F0.13
sI39
F0.04999999999999999
sI40
F0.89
sI41
F0.4700000000000001
sI42
F-0.55
sI43
F-0.48
sI44
F-0.31
ssg5
I0
ssI65
(dp225
g3
(dp226
I0
F0.9500000000000001
sI1
F-0.55
sI2
F-1.1
sI3
F0.33999999999999997
sI4
F-0.06
sI5
F0.7
sI6
F0.020000000000000004
sI7
F0.95
sI8
F-0.08000000000000002
sI9
F-0.64
sI10
F-0.9199999999999999
sI11
F-0.45999999999999996
sI12
F0.62
sI13
F0.56
sI14
F0.44000000000000006
sI15
F-0.48
sI16
F0.1500000000000001
sI17
F-0.12
sI18
F0.15
sI19
F0.31000000000000005
sI20
F-0.10000000000000003
sI21
F-0.13
sI22
F0.5000000000000001
sI23
F0.9400000000000001
sI24
F0.68
sI25
F0.53
sI26
F-0.43000000000000005
sI27
F-0.14999999999999997
sI28
F0.4600000000000001
sI29
F-0.28
sI30
F0.03
sI31
F-0.14
sI32
F0.89
sI33
F-0.22000000000000017
sI34
F-0.63
sI35
F-0.21000000000000005
sI36
F1.2500000000000002
sI37
F0.33000000000000007
sI38
F0.6900000000000001
sI39
F-0.3900000000000001
sI40
F0.6000000000000001
sI41
F-0.43000000000000005
sI42
F0.020000000000000004
sI43
F-0.5700000000000001
sI44
F-0.15
ssg5
I0
ssI66
(dp227
g3
(dp228
I0
F0.92
sI1
F-0.87
sI2
F0.07
sI3
F-0.37
sI4
F0.009999999999999981
sI5
F-1.08
sI6
F0.29000000000000004
sI7
F-0.82
sI8
F0.62
sI9
F0.38
sI10
F-0.16
sI11
F-0.14
sI12
F0.63
sI13
F-1.4500000000000004
sI14
F0.27000000000000013
sI15
F-0.57
sI16
F0.8400000000000001
sI17
F-0.93
sI18
F-0.04000000000000001
sI19
F-0.08000000000000002
sI20
F0.43000000000000005
sI21
F-0.06
sI22
F0.54
sI23
F-0.49
sI24
F-0.14
sI25
F0.06
sI26
F0.72
sI27
F0.28
sI28
F-0.28
sI29
F-0.9700000000000001
sI30
F0.9700000000000001
sI31
F-0.8899999999999999
sI32
F0.17
sI33
F-0.62
sI34
F-0.4600000000000001
sI35
F0.43000000000000005
sI36
F0.69
sI37
F0.5599999999999999
sI38
F-1.03
sI39
F0.32000000000000006
sI40
F0.52
sI41
F0.16
sI42
F0.8099999999999999
sI43
F0.03
sI44
F0.64
ssg5
I0
ssI67
(dp229
g3
(dp230
I0
F-0.83
sI1
F-0.9700000000000001
sI2
F-0.12
sI3
F0.10999999999999999
sI4
F0.14999999999999997
sI5
F0.86
sI6
F-1.0
sI7
F0.09
sI8
F0.79
sI9
F-0.89
sI10
F0.44999999999999996
sI11
F0.33999999999999997
sI12
F0.88
sI13
F0.11
sI14
F-0.33
sI15
F0.69
sI16
F-0.79
sI17
F-1.09
sI18
F0.13
sI19
F-0.8900000000000001
sI20
F0.37
sI21
F0.7899999999999999
sI22
F-0.4800000000000001
sI23
F-0.3600000000000001
sI24
F0.55
sI25
F1.2900000000000003
sI26
F0.56
sI27
F0.04000000000000001
sI28
F0.37
sI29
F-0.79
sI30
F0.76
sI31
F0.54
sI32
F0.19000000000000003
sI33
F-0.7999999999999999
sI34
F0.53
sI35
F0.0
sI36
F0.27000000000000013
sI37
F-0.8099999999999999
sI38
F-0.39
sI39
F0.37
sI40
F0.8
sI41
F-0.7
sI42
F-0.63
sI43
F-0.010000000000000009
sI44
F-1.12
ssg5
I0
ssI68
(dp231
g3
(dp232
I0
F-0.06
sI1
F-0.45999999999999996
sI2
F-0.89
sI3
F0.04000000000000001
sI4
F1.1300000000000001
sI5
F0.18
sI6
F0.26
sI7
F0.4900000000000001
sI8
F0.4700000000000001
sI9
F0.19
sI10
F0.0
sI11
F0.6900000000000001
sI12
F-1.09
sI13
F-1.3200000000000003
sI14
F-0.52
sI15
F0.32
sI16
F0.6400000000000001
sI17
F-0.64
sI18
F0.42000000000000004
sI19
F-0.74
sI20
F-1.2800000000000002
sI21
F-0.71
sI22
F0.09
sI23
F0.14999999999999997
sI24
F0.04999999999999999
sI25
F-0.76
sI26
F-0.44000000000000006
sI27
F-0.76
sI28
F0.20000000000000004
sI29
F-0.06
sI30
F-0.6
sI31
F0.24999999999999997
sI32
F0.7599999999999999
sI33
F0.21000000000000002
sI34
F0.39
sI35
F0.7300000000000001
sI36
F-0.52
sI37
F-0.52
sI38
F0.4600000000000001
sI39
F0.75
sI40
F-0.7300000000000001
sI41
F-0.39
sI42
F0.82
sI43
F0.4600000000000001
sI44
F-0.5
ssg5
I0
ssI69
(dp233
g3
(dp234
I0
F-0.67
sI1
F0.74
sI2
F1.2500000000000002
sI3
F-0.76
sI4
F-0.020000000000000004
sI5
F0.49
sI6
F1.1
sI7
F-0.7500000000000001
sI8
F-0.23000000000000007
sI9
F-0.25
sI10
F-0.03
sI11
F0.6
sI12
F-0.9500000000000001
sI13
F-0.9400000000000001
sI14
F-0.89
sI15
F0.04000000000000001
sI16
F-0.85
sI17
F-0.76
sI18
F-0.08000000000000002
sI19
F0.42000000000000004
sI20
F-0.18000000000000002
sI21
F-0.9
sI22
F-0.51
sI23
F-1.07
sI24
F0.78
sI25
F-0.26
sI26
F-0.57
sI27
F-0.91
sI28
F1.05
sI29
F0.43000000000000005
sI30
F-0.97
sI31
F0.6000000000000001
sI32
F-1.12
sI33
F-0.92
sI34
F0.6100000000000001
sI35
F0.78
sI36
F-0.27
sI37
F0.11000000000000001
sI38
F0.19000000000000003
sI39
F-0.35
sI40
F1.05
sI41
F-0.5700000000000001
sI42
F1.3000000000000003
sI43
F-0.44000000000000006
sI44
F0.3700000000000001
ssg5
I0
ssI70
(dp235
g3
(dp236
I0
F-0.15
sI1
F0.33000000000000007
sI2
F0.08000000000000002
sI3
F0.67
sI4
F0.04000000000000001
sI5
F0.7
sI6
F0.39
sI7
F0.12
sI8
F-0.99
sI9
F-0.05000000000000002
sI10
F0.16
sI11
F-0.16
sI12
F-0.4800000000000001
sI13
F-0.10000000000000003
sI14
F-0.68
sI15
F-0.6000000000000001
sI16
F0.32000000000000006
sI17
F-1.1
sI18
F-0.7200000000000001
sI19
F0.78
sI20
F0.09000000000000002
sI21
F-0.16
sI22
F0.6900000000000001
sI23
F1.3000000000000003
sI24
F0.5700000000000001
sI25
F0.62
sI26
F-1.07
sI27
F-0.74
sI28
F0.6300000000000001
sI29
F-0.32000000000000006
sI30
F0.6100000000000001
sI31
F-0.61
sI32
F0.15000000000000002
sI33
F0.39
sI34
F-0.17000000000000012
sI35
F-0.53
sI36
F0.65
sI37
F1.1600000000000001
sI38
F-0.87
sI39
F1.1900000000000002
sI40
F-1.0
sI41
F-0.76
sI42
F1.4000000000000004
sI43
F0.43000000000000005
sI44
F0.27
ssg5
I0
ssI71
(dp237
g3
(dp238
I0
F0.4700000000000001
sI1
F-0.26
sI2
F-0.37
sI3
F-1.1
sI4
F0.24000000000000007
sI5
F-1.1900000000000002
sI6
F-0.49
sI7
F-0.58
sI8
F0.7000000000000001
sI9
F-0.55
sI10
F-0.7100000000000001
sI11
F-0.84
sI12
F-0.010000000000000009
sI13
F-0.56
sI14
F-0.27
sI15
F-0.3700000000000001
sI16
F0.06
sI17
F-0.24000000000000002
sI18
F1.2000000000000002
sI19
F-0.21000000000000005
sI20
F0.009999999999999981
sI21
F0.42000000000000004
sI22
F0.9199999999999999
sI23
F0.67
sI24
F-0.6900000000000001
sI25
F0.16000000000000003
sI26
F-0.16
sI27
F0.9600000000000001
sI28
F1.11
sI29
F0.40000000000000013
sI30
F-1.08
sI31
F-0.29000000000000004
sI32
F-0.36
sI33
F0.7300000000000001
sI34
F-0.020000000000000018
sI35
F0.57
sI36
F0.5
sI37
F1.1
sI38
F0.7700000000000001
sI39
F1.02
sI40
F-0.18999999999999997
sI41
F0.5399999999999999
sI42
F0.77
sI43
F0.83
sI44
F-0.85
ssg5
I0
ssI72
(dp239
g3
(dp240
I0
F-0.5900000000000002
sI1
F0.55
sI2
F0.32
sI3
F-0.99
sI4
F-0.55
sI5
F-1.01
sI6
F0.72
sI7
F-0.19
sI8
F0.8200000000000001
sI9
F0.94
sI10
F-0.92
sI11
F-0.94
sI12
F0.8900000000000001
sI13
F0.16
sI14
F-0.14999999999999997
sI15
F-0.68
sI16
F-0.6900000000000001
sI17
F-0.32000000000000006
sI18
F0.42000000000000015
sI19
F0.6799999999999999
sI20
F-0.49
sI21
F-0.4700000000000001
sI22
F0.29000000000000004
sI23
F-0.64
sI24
F-0.44000000000000006
sI25
F-0.13
sI26
F0.58
sI27
F0.30000000000000004
sI28
F-0.75
sI29
F-0.48
sI30
F0.57
sI31
F0.020000000000000004
sI32
F-1.1600000000000001
sI33
F-0.12
sI34
F-0.25
sI35
F0.27000000000000013
sI36
F-1.2000000000000002
sI37
F-1.0
sI38
F0.13
sI39
F0.66
sI40
F0.48
sI41
F0.42000000000000004
sI42
F0.7
sI43
F-0.48
sI44
F-0.61
ssg5
I0
ssI73
(dp241
g3
(dp242
I0
F0.26
sI1
F0.9500000000000001
sI2
F0.04999999999999999
sI3
F0.18
sI4
F-0.4600000000000001
sI5
F0.28
sI6
F1.06
sI7
F0.07
sI8
F-0.32000000000000006
sI9
F0.34
sI10
F0.43000000000000005
sI11
F0.63
sI12
F-0.11000000000000001
sI13
F0.5
sI14
F0.7300000000000001
sI15
F1.2800000000000002
sI16
F0.07
sI17
F-0.34
sI18
F0.44000000000000006
sI19
F-0.15
sI20
F0.32000000000000006
sI21
F0.0
sI22
F0.23000000000000007
sI23
F0.17
sI24
F-0.21000000000000005
sI25
F0.9
sI26
F0.53
sI27
F0.23999999999999996
sI28
F-0.45999999999999996
sI29
F0.5700000000000001
sI30
F0.43000000000000005
sI31
F-0.30000000000000004
sI32
F0.26
sI33
F-0.89
sI34
F0.03
sI35
F0.48
sI36
F0.7200000000000001
sI37
F0.4900000000000001
sI38
F0.52
sI39
F0.09000000000000001
sI40
F-0.14999999999999997
sI41
F-0.39
sI42
F0.8899999999999999
sI43
F-0.63
sI44
F0.29000000000000004
ssg5
I0
ssI74
(dp243
g3
(dp244
I0
F0.57
sI1
F0.96
sI2
F0.65
sI3
F0.82
sI4
F-0.42000000000000004
sI5
F0.65
sI6
F-0.75
sI7
F0.19000000000000003
sI8
F1.1300000000000001
sI9
F0.55
sI10
F-0.22000000000000006
sI11
F-0.7300000000000001
sI12
F0.22
sI13
F-0.7200000000000001
sI14
F-0.5900000000000001
sI15
F-0.87
sI16
F-0.6200000000000001
sI17
F-0.66
sI18
F0.4600000000000001
sI19
F0.30000000000000004
sI20
F-0.84
sI21
F-1.09
sI22
F0.17
sI23
F-0.36
sI24
F0.7799999999999999
sI25
F0.71
sI26
F0.64
sI27
F0.54
sI28
F0.07999999999999999
sI29
F0.85
sI30
F-0.95
sI31
F-0.64
sI32
F0.63
sI33
F0.5000000000000001
sI34
F-0.74
sI35
F0.5100000000000001
sI36
F-0.37
sI37
F-0.10000000000000003
sI38
F0.04999999999999999
sI39
F0.87
sI40
F0.29000000000000004
sI41
F1.2000000000000002
sI42
F0.45999999999999996
sI43
F0.41999999999999993
sI44
F-0.18999999999999997
ssg5
I0
ssI75
(dp245
g3
(dp246
I0
F-0.04999999999999999
sI1
F0.73
sI2
F-0.30000000000000004
sI3
F0.14
sI4
F-0.56
sI5
F0.010000000000000009
sI6
F0.5
sI7
F0.08000000000000002
sI8
F0.6799999999999999
sI9
F-0.8199999999999998
sI10
F0.48
sI11
F1.1
sI12
F-0.65
sI13
F-0.3
sI14
F-0.63
sI15
F-0.7200000000000001
sI16
F0.27
sI17
F0.48
sI18
F-0.07
sI19
F0.87
sI20
F0.4800000000000001
sI21
F0.28
sI22
F0.05000000000000002
sI23
F-0.19000000000000003
sI24
F0.4900000000000001
sI25
F-0.9600000000000001
sI26
F-0.78
sI27
F-0.3400000000000001
sI28
F-0.77
sI29
F-0.54
sI30
F-0.32
sI31
F0.44000000000000006
sI32
F-0.87
sI33
F0.66
sI34
F0.52
sI35
F-0.42000000000000004
sI36
F0.9700000000000001
sI37
F-0.63
sI38
F0.55
sI39
F0.11
sI40
F0.9
sI41
F-0.55
sI42
F-0.03
sI43
F0.25
sI44
F-0.51
ssg5
I0
ssI76
(dp247
g3
(dp248
I0
F0.8099999999999999
sI1
F-0.45000000000000007
sI2
F-0.77
sI3
F-0.9
sI4
F-1.3000000000000003
sI5
F-0.33999999999999997
sI6
F0.20000000000000004
sI7
F-0.57
sI8
F-1.2300000000000002
sI9
F1.2300000000000002
sI10
F-0.16
sI11
F-0.04000000000000001
sI12
F0.42000000000000004
sI13
F0.94
sI14
F-0.07
sI15
F0.07
sI16
F0.28
sI17
F1.01
sI18
F0.21000000000000002
sI19
F0.6
sI20
F-0.38
sI21
F-1.05
sI22
F0.5499999999999999
sI23
F0.98
sI24
F1.07
sI25
F-0.54
sI26
F-0.89
sI27
F-0.9
sI28
F-0.61
sI29
F-0.2
sI30
F-0.30000000000000004
sI31
F0.3400000000000001
sI32
F0.53
sI33
F-1.08
sI34
F-1.1
sI35
F-0.6299999999999999
sI36
F0.20000000000000004
sI37
F-0.94
sI38
F0.33999999999999997
sI39
F-0.13999999999999996
sI40
F0.64
sI41
F-0.1
sI42
F0.20000000000000004
sI43
F0.3500000000000001
sI44
F0.5800000000000001
ssg5
I0
ssI77
(dp249
g3
(dp250
I0
F-0.5
sI1
F-0.09000000000000002
sI2
F-0.29000000000000004
sI3
F-0.89
sI4
F0.75
sI5
F0.6000000000000001
sI6
F-0.39
sI7
F0.67
sI8
F-0.62
sI9
F-0.68
sI10
F0.56
sI11
F0.49
sI12
F-0.35
sI13
F0.94
sI14
F0.38
sI15
F0.17
sI16
F0.09
sI17
F-0.83
sI18
F0.96
sI19
F0.88
sI20
F-0.15
sI21
F0.64
sI22
F0.57
sI23
F-0.74
sI24
F0.16
sI25
F-1.1500000000000001
sI26
F-1.08
sI27
F-0.45999999999999996
sI28
F-0.97
sI29
F-0.31
sI30
F-0.29000000000000004
sI31
F0.48
sI32
F-0.32000000000000006
sI33
F-0.4700000000000001
sI34
F-0.8300000000000001
sI35
F-1.06
sI36
F0.10000000000000003
sI37
F-0.44999999999999996
sI38
F-0.49
sI39
F0.25
sI40
F-0.65
sI41
F-0.66
sI42
F-0.22000000000000006
sI43
F0.55
sI44
F-0.32000000000000006
ssg5
I0
ssI78
(dp251
g3
(dp252
I0
F0.51
sI1
F0.09
sI2
F0.32000000000000006
sI3
F-0.65
sI4
F-0.16
sI5
F0.9500000000000001
sI6
F-0.35
sI7
F0.5299999999999999
sI8
F-0.0500000000000001
sI9
F0.9600000000000001
sI10
F-0.88
sI11
F0.33
sI12
F0.5
sI13
F0.08000000000000002
sI14
F-1.01
sI15
F0.7400000000000001
sI16
F-0.39
sI17
F-0.31000000000000016
sI18
F-0.28
sI19
F0.64
sI20
F-1.2500000000000002
sI21
F-0.060000000000000026
sI22
F-0.63
sI23
F-0.15
sI24
F0.04999999999999999
sI25
F-0.69
sI26
F-0.9900000000000001
sI27
F-0.30000000000000004
sI28
F-0.19
sI29
F0.10999999999999999
sI30
F-0.52
sI31
F-0.86
sI32
F0.69
sI33
F-0.63
sI34
F-0.93
sI35
F0.17
sI36
F0.17
sI37
F0.7500000000000001
sI38
F-0.71
sI39
F0.71
sI40
F-0.9600000000000001
sI41
F-0.54
sI42
F0.0
sI43
F0.3500000000000001
sI44
F0.009999999999999981
ssg5
I0
ssI79
(dp253
g3
(dp254
I0
F-0.11000000000000004
sI1
F0.28
sI2
F0.09000000000000002
sI3
F-0.62
sI4
F-0.3400000000000001
sI5
F-0.38
sI6
F0.13
sI7
F0.28
sI8
F-0.6799999999999999
sI9
F-0.7500000000000001
sI10
F0.37
sI11
F-0.53
sI12
F-0.3600000000000001
sI13
F-0.68
sI14
F-0.59
sI15
F0.26
sI16
F-0.009999999999999981
sI17
F0.8899999999999999
sI18
F-0.8300000000000001
sI19
F0.21000000000000005
sI20
F-0.7799999999999999
sI21
F-0.79
sI22
F-0.33000000000000007
sI23
F0.009999999999999995
sI24
F-0.55
sI25
F-1.07
sI26
F0.75
sI27
F0.88
sI28
F-0.8500000000000001
sI29
F-0.54
sI30
F1.08
sI31
F-0.37
sI32
F0.6000000000000001
sI33
F0.21000000000000002
sI34
F-0.7
sI35
F0.13999999999999996
sI36
F-0.9500000000000001
sI37
F-0.26
sI38
F0.24000000000000002
sI39
F0.9600000000000001
sI40
F-0.7000000000000001
sI41
F-0.86
sI42
F-0.86
sI43
F-0.27
sI44
F-0.63
ssg5
I0
ssI80
(dp255
g3
(dp256
I0
F0.51
sI1
F0.48
sI2
F0.52
sI3
F-0.62
sI4
F-0.9
sI5
F-0.28
sI6
F-0.28
sI7
F0.71
sI8
F-0.7699999999999999
sI9
F1.08
sI10
F0.15
sI11
F0.81
sI12
F-0.5499999999999999
sI13
F0.8500000000000001
sI14
F-0.9800000000000001
sI15
F-0.91
sI16
F-0.33
sI17
F-0.7499999999999999
sI18
F-0.20000000000000004
sI19
F-0.76
sI20
F-0.11000000000000001
sI21
F-0.7900000000000001
sI22
F1.1800000000000002
sI23
F-0.32000000000000006
sI24
F1.3000000000000003
sI25
F0.8999999999999999
sI26
F0.4900000000000001
sI27
F0.47
sI28
F-0.82
sI29
F0.14999999999999997
sI30
F0.25
sI31
F0.68
sI32
F0.62
sI33
F-0.04000000000000001
sI34
F1.2300000000000002
sI35
F-0.89
sI36
F0.03
sI37
F-0.12000000000000002
sI38
F0.78
sI39
F-0.47
sI40
F-0.18000000000000002
sI41
F-0.9400000000000001
sI42
F-0.04000000000000001
sI43
F-0.4800000000000001
sI44
F-0.86
ssg5
I0
ssI81
(dp257
g3
(dp258
I0
F-0.41000000000000003
sI1
F0.94
sI2
F-0.7300000000000001
sI3
F-1.02
sI4
F-0.06
sI5
F0.9700000000000001
sI6
F-0.38
sI7
F0.89
sI8
F-0.63
sI9
F-0.27
sI10
F0.52
sI11
F-0.04999999999999999
sI12
F-0.19000000000000003
sI13
F-0.9099999999999999
sI14
F-0.9899999999999999
sI15
F-1.1600000000000001
sI16
F-0.03
sI17
F0.98
sI18
F-0.23
sI19
F-0.24999999999999997
sI20
F0.63
sI21
F1.0
sI22
F-0.5700000000000001
sI23
F-0.11000000000000004
sI24
F-0.33000000000000007
sI25
F-0.44000000000000006
sI26
F-0.32000000000000006
sI27
F-0.75
sI28
F0.75
sI29
F-0.6799999999999999
sI30
F-0.6499999999999999
sI31
F-1.03
sI32
F0.79
sI33
F-0.36
sI34
F-0.93
sI35
F0.38
sI36
F0.27
sI37
F-1.2100000000000002
sI38
F-0.28
sI39
F-0.5700000000000001
sI40
F-0.10999999999999999
sI41
F-0.64
sI42
F-1.2600000000000002
sI43
F-0.13
sI44
F0.0
ssg5
I0
ssI82
(dp259
g3
(dp260
I0
F0.7200000000000001
sI1
F0.1
sI2
F0.7999999999999999
sI3
F-0.9800000000000001
sI4
F0.7300000000000001
sI5
F0.58
sI6
F-0.13
sI7
F0.61
sI8
F0.5700000000000001
sI9
F0.62
sI10
F1.1500000000000001
sI11
F-0.87
sI12
F0.36
sI13
F0.95
sI14
F-1.12
sI15
F-0.62
sI16
F-0.14
sI17
F-0.07
sI18
F0.63
sI19
F0.69
sI20
F0.42000000000000004
sI21
F0.27
sI22
F-0.56
sI23
F-0.39
sI24
F-0.97
sI25
F-0.8700000000000001
sI26
F0.04000000000000001
sI27
F0.27
sI28
F0.8300000000000001
sI29
F-0.7800000000000001
sI30
F-0.75
sI31
F-1.06
sI32
F-0.32000000000000006
sI33
F0.45999999999999996
sI34
F-0.6900000000000001
sI35
F1.09
sI36
F-0.18000000000000002
sI37
F-0.77
sI38
F-0.91
sI39
F0.62
sI40
F-0.31000000000000005
sI41
F-0.88
sI42
F0.7499999999999999
sI43
F0.39
sI44
F0.31999999999999995
ssg5
I0
ssI83
(dp261
g3
(dp262
I0
F-0.58
sI1
F0.26
sI2
F0.30000000000000004
sI3
F1.03
sI4
F-0.86
sI5
F0.020000000000000004
sI6
F0.6100000000000001
sI7
F0.22000000000000003
sI8
F1.1700000000000002
sI9
F0.41000000000000003
sI10
F0.45999999999999996
sI11
F0.9
sI12
F-0.9199999999999999
sI13
F0.56
sI14
F-0.42000000000000004
sI15
F-0.71
sI16
F0.17
sI17
F0.28
sI18
F0.0
sI19
F0.8900000000000001
sI20
F0.5700000000000001
sI21
F-0.37
sI22
F-0.6
sI23
F0.47
sI24
F-0.56
sI25
F-0.5399999999999999
sI26
F0.68
sI27
F-0.4
sI28
F1.01
sI29
F0.23
sI30
F0.85
sI31
F0.23
sI32
F-0.44999999999999996
sI33
F0.26
sI34
F-0.03
sI35
F0.5599999999999999
sI36
F-0.33000000000000007
sI37
F-0.14000000000000007
sI38
F0.27
sI39
F-0.78
sI40
F0.3700000000000001
sI41
F0.5200000000000001
sI42
F0.7200000000000001
sI43
F-0.16
sI44
F-0.21
ssg5
I0
ssI84
(dp263
g3
(dp264
I0
F0.83
sI1
F-0.5499999999999999
sI2
F-0.84
sI3
F0.7899999999999999
sI4
F0.85
sI5
F-0.77
sI6
F-0.3400000000000001
sI7
F0.47
sI8
F0.81
sI9
F0.8899999999999999
sI10
F0.20000000000000004
sI11
F0.59
sI12
F-0.04999999999999999
sI13
F-0.76
sI14
F-0.08000000000000002
sI15
F-0.79
sI16
F-1.4200000000000004
sI17
F0.27
sI18
F-0.36
sI19
F-0.8200000000000001
sI20
F0.33999999999999997
sI21
F0.22000000000000003
sI22
F0.8799999999999999
sI23
F-0.6900000000000001
sI24
F-0.33999999999999997
sI25
F-0.66
sI26
F-0.56
sI27
F-0.12
sI28
F-0.43000000000000005
sI29
F-0.19
sI30
F-0.86
sI31
F0.99
sI32
F0.85
sI33
F0.63
sI34
F0.22
sI35
F0.12
sI36
F-0.17
sI37
F-0.67
sI38
F-0.29000000000000004
sI39
F-0.24000000000000007
sI40
F0.23
sI41
F0.94
sI42
F-0.8
sI43
F-0.52
sI44
F1.2500000000000002
ssg5
I0
ssI85
(dp265
g3
(dp266
I0
F-0.99
sI1
F0.9900000000000001
sI2
F0.7000000000000001
sI3
F-0.28000000000000014
sI4
F-0.4900000000000001
sI5
F0.08000000000000002
sI6
F-0.6499999999999999
sI7
F0.21
sI8
F0.73
sI9
F-0.9500000000000001
sI10
F1.1
sI11
F-0.4700000000000001
sI12
F-0.05
sI13
F1.01
sI14
F0.55
sI15
F-0.7899999999999999
sI16
F-0.35
sI17
F0.51
sI18
F-0.12
sI19
F1.2000000000000002
sI20
F-0.06
sI21
F0.26
sI22
F0.63
sI23
F0.8
sI24
F0.04999999999999999
sI25
F0.51
sI26
F0.29000000000000004
sI27
F-1.3300000000000003
sI28
F-0.33000000000000007
sI29
F0.81
sI30
F0.64
sI31
F-0.5
sI32
F-0.9700000000000001
sI33
F0.12000000000000001
sI34
F1.05
sI35
F-1.05
sI36
F-0.75
sI37
F0.27
sI38
F-0.7799999999999999
sI39
F0.52
sI40
F0.76
sI41
F-0.8
sI42
F0.34
sI43
F1.2600000000000002
sI44
F-0.26
ssg5
I0
ssI86
(dp267
g3
(dp268
I0
F0.82
sI1
F-0.6
sI2
F-0.7100000000000001
sI3
F0.06
sI4
F-0.55
sI5
F0.6799999999999999
sI6
F-0.23999999999999996
sI7
F0.56
sI8
F-0.37
sI9
F-0.04999999999999999
sI10
F-0.20000000000000004
sI11
F-0.30000000000000016
sI12
F0.73
sI13
F0.45000000000000007
sI14
F-0.56
sI15
F-0.9199999999999999
sI16
F0.7
sI17
F0.08000000000000002
sI18
F-0.31000000000000005
sI19
F-0.93
sI20
F-0.42000000000000004
sI21
F-0.23999999999999996
sI22
F0.45999999999999996
sI23
F-1.06
sI24
F0.09000000000000002
sI25
F0.87
sI26
F0.9799999999999999
sI27
F-1.1800000000000002
sI28
F0.62
sI29
F0.020000000000000004
sI30
F0.07999999999999999
sI31
F-0.75
sI32
F0.7300000000000001
sI33
F0.41000000000000003
sI34
F-0.54
sI35
F0.81
sI36
F-0.89
sI37
F0.36
sI38
F0.23
sI39
F0.21
sI40
F0.62
sI41
F0.020000000000000018
sI42
F-1.06
sI43
F-0.24000000000000007
sI44
F-0.7
ssg5
I0
ssI87
(dp269
g3
(dp270
I0
F0.31000000000000005
sI1
F-0.27
sI2
F-1.3400000000000003
sI3
F0.85
sI4
F-0.8999999999999999
sI5
F0.72
sI6
F-0.13
sI7
F-0.65
sI8
F-0.8300000000000001
sI9
F1.2400000000000002
sI10
F0.0
sI11
F0.45999999999999996
sI12
F-0.8
sI13
F0.07
sI14
F0.47
sI15
F0.13
sI16
F-0.21
sI17
F0.1500000000000001
sI18
F0.35
sI19
F-0.33000000000000007
sI20
F-0.9600000000000001
sI21
F-0.31000000000000005
sI22
F-0.6900000000000001
sI23
F-0.33000000000000007
sI24
F0.8400000000000001
sI25
F-0.30000000000000004
sI26
F0.33000000000000007
sI27
F0.52
sI28
F0.44000000000000006
sI29
F-0.92
sI30
F0.86
sI31
F0.009999999999999981
sI32
F-0.6599999999999999
sI33
F0.87
sI34
F-0.16
sI35
F0.66
sI36
F0.8900000000000001
sI37
F0.32
sI38
F0.84
sI39
F0.9
sI40
F0.01999999999999999
sI41
F-0.14
sI42
F-1.1600000000000001
sI43
F-0.45000000000000007
sI44
F0.9500000000000001
ssg5
I0
ssI88
(dp271
g3
(dp272
I0
F0.36
sI1
F0.43000000000000005
sI2
F0.28
sI3
F-1.2000000000000002
sI4
F0.67
sI5
F-0.13999999999999999
sI6
F-0.41000000000000003
sI7
F0.53
sI8
F0.35
sI9
F0.9400000000000001
sI10
F1.2300000000000002
sI11
F0.03999999999999998
sI12
F-0.84
sI13
F-0.77
sI14
F-0.4
sI15
F-0.52
sI16
F-0.16
sI17
F0.23
sI18
F-0.8600000000000001
sI19
F0.4900000000000001
sI20
F0.68
sI21
F0.9400000000000001
sI22
F-0.38
sI23
F0.45000000000000007
sI24
F-0.53
sI25
F-0.8
sI26
F0.06
sI27
F0.75
sI28
F0.55
sI29
F-0.04000000000000001
sI30
F0.5000000000000001
sI31
F0.16
sI32
F-0.36
sI33
F0.2
sI34
F-0.8099999999999999
sI35
F1.06
sI36
F1.1800000000000002
sI37
F-0.009999999999999995
sI38
F-0.94
sI39
F0.58
sI40
F0.39
sI41
F0.4
sI42
F-0.06
sI43
F0.3400000000000001
sI44
F-0.23
ssg5
I0
ssI89
(dp273
g3
(dp274
I0
F-0.29000000000000004
sI1
F-0.32
sI2
F0.9
sI3
F0.4
sI4
F-0.01999999999999999
sI5
F-0.96
sI6
F-1.1400000000000001
sI7
F0.61
sI8
F0.75
sI9
F0.7000000000000001
sI10
F-0.07
sI11
F-0.07999999999999999
sI12
F-0.51
sI13
F0.32000000000000006
sI14
F0.5700000000000001
sI15
F0.03999999999999998
sI16
F0.63
sI17
F-0.8099999999999999
sI18
F0.62
sI19
F0.7100000000000001
sI20
F0.9900000000000001
sI21
F0.01999999999999999
sI22
F0.1
sI23
F-1.09
sI24
F0.26
sI25
F1.07
sI26
F0.5
sI27
F-0.23
sI28
F0.04999999999999999
sI29
F0.07
sI30
F0.07999999999999999
sI31
F0.7999999999999999
sI32
F0.77
sI33
F1.1900000000000002
sI34
F-0.18
sI35
F0.7000000000000001
sI36
F0.09
sI37
F0.28
sI38
F0.41000000000000003
sI39
F-0.5499999999999999
sI40
F-1.08
sI41
F-0.54
sI42
F0.30000000000000004
sI43
F-0.76
sI44
F-0.12000000000000001
ssg5
I0
ssI90
(dp275
g3
(dp276
I0
F0.32000000000000006
sI1
F0.55
sI2
F0.39
sI3
F0.73
sI4
F-0.53
sI5
F0.17
sI6
F0.62
sI7
F-0.060000000000000026
sI8
F-0.92
sI9
F0.39
sI10
F-0.010000000000000037
sI11
F0.54
sI12
F-0.18000000000000002
sI13
F0.5599999999999999
sI14
F0.47
sI15
F-0.72
sI16
F0.4700000000000001
sI17
F-0.39
sI18
F-1.1900000000000002
sI19
F0.5800000000000001
sI20
F-0.53
sI21
F0.8400000000000001
sI22
F0.23000000000000007
sI23
F-0.07000000000000012
sI24
F-0.8099999999999999
sI25
F0.85
sI26
F-0.31000000000000005
sI27
F0.17
sI28
F-0.9800000000000001
sI29
F0.52
sI30
F1.2000000000000002
sI31
F0.62
sI32
F-0.04999999999999999
sI33
F-0.26
sI34
F0.2
sI35
F0.45000000000000007
sI36
F-0.11000000000000004
sI37
F0.43999999999999995
sI38
F-1.2300000000000002
sI39
F0.81
sI40
F-0.7400000000000001
sI41
F-0.10000000000000003
sI42
F-0.8300000000000001
sI43
F0.75
sI44
F0.48
ssg5
I0
ssI91
(dp277
g3
(dp278
I0
F0.6000000000000001
sI1
F0.85
sI2
F-0.30000000000000004
sI3
F1.3000000000000003
sI4
F-0.5700000000000001
sI5
F0.78
sI6
F-0.31000000000000005
sI7
F-0.78
sI8
F-0.31
sI9
F0.16
sI10
F0.5
sI11
F-1.1700000000000002
sI12
F-0.09
sI13
F-0.69
sI14
F-0.5499999999999999
sI15
F0.38
sI16
F0.6000000000000001
sI17
F0.86
sI18
F0.6400000000000001
sI19
F0.45000000000000007
sI20
F0.7700000000000001
sI21
F-0.12
sI22
F-0.67
sI23
F-0.17
sI24
F0.51
sI25
F-0.74
sI26
F-0.61
sI27
F1.1500000000000001
sI28
F-0.5700000000000001
sI29
F0.45999999999999996
sI30
F0.41000000000000003
sI31
F0.10999999999999999
sI32
F0.0
sI33
F0.14
sI34
F0.3500000000000001
sI35
F-0.28
sI36
F-0.5499999999999999
sI37
F0.3900000000000001
sI38
F-0.30000000000000004
sI39
F-0.5
sI40
F1.09
sI41
F-0.9
sI42
F-0.42000000000000004
sI43
F0.71
sI44
F0.2
ssg5
I0
ssI92
(dp279
g3
(dp280
I0
F-0.58
sI1
F0.30000000000000004
sI2
F0.54
sI3
F-1.1400000000000001
sI4
F-0.10000000000000003
sI5
F-0.54
sI6
F0.07999999999999999
sI7
F0.5700000000000001
sI8
F0.25
sI9
F0.22
sI10
F-0.58
sI11
F-0.41000000000000003
sI12
F-0.45999999999999996
sI13
F-0.4600000000000001
sI14
F-0.72
sI15
F0.56
sI16
F-0.69
sI17
F-0.26
sI18
F-0.19000000000000003
sI19
F1.2000000000000002
sI20
F0.31000000000000005
sI21
F0.5800000000000001
sI22
F-0.78
sI23
F0.7
sI24
F-0.2500000000000001
sI25
F-0.27
sI26
F-0.53
sI27
F0.4700000000000001
sI28
F-0.62
sI29
F0.56
sI30
F-0.78
sI31
F-0.45000000000000007
sI32
F0.91
sI33
F0.48
sI34
F-0.18000000000000002
sI35
F0.19000000000000003
sI36
F0.04999999999999996
sI37
F0.29000000000000004
sI38
F0.21
sI39
F1.2400000000000002
sI40
F0.12000000000000002
sI41
F0.04000000000000001
sI42
F-0.39
sI43
F-0.05000000000000002
sI44
F0.53
ssg5
I0
ssI93
(dp281
g3
(dp282
I0
F-0.2
sI1
F0.33
sI2
F-0.10999999999999999
sI3
F0.86
sI4
F-0.13000000000000006
sI5
F0.5399999999999999
sI6
F0.06
sI7
F0.87
sI8
F-0.41000000000000003
sI9
F1.1400000000000001
sI10
F0.23
sI11
F-1.03
sI12
F-1.02
sI13
F0.0
sI14
F0.77
sI15
F0.009999999999999981
sI16
F-0.36
sI17
F-0.63
sI18
F-0.010000000000000009
sI19
F0.56
sI20
F-0.6
sI21
F-0.06
sI22
F-0.2
sI23
F-0.24000000000000007
sI24
F0.4600000000000001
sI25
F-0.85
sI26
F-0.21000000000000002
sI27
F0.69
sI28
F0.45000000000000007
sI29
F-0.49
sI30
F-0.68
sI31
F-0.42000000000000004
sI32
F-0.5
sI33
F0.32000000000000006
sI34
F0.2500000000000001
sI35
F0.36
sI36
F-0.56
sI37
F0.51
sI38
F0.65
sI39
F-0.3500000000000001
sI40
F0.66
sI41
F-0.62
sI42
F0.97
sI43
F0.9099999999999999
sI44
F-0.68
ssg5
I0
ssI94
(dp283
g3
(dp284
I0
F-0.1500000000000001
sI1
F-0.3600000000000001
sI2
F-0.8
sI3
F0.17
sI4
F-0.59
sI5
F0.24000000000000002
sI6
F0.52
sI7
F0.8099999999999999
sI8
F-0.6799999999999999
sI9
F0.5599999999999999
sI10
F-0.3400000000000001
sI11
F0.34
sI12
F-0.4900000000000001
sI13
F0.18000000000000002
sI14
F-0.45000000000000007
sI15
F0.6900000000000001
sI16
F0.22000000000000006
sI17
F-0.04000000000000001
sI18
F-0.79
sI19
F-0.9800000000000001
sI20
F-0.27
sI21
F-0.23
sI22
F-0.3700000000000001
sI23
F-0.28
sI24
F0.68
sI25
F0.61
sI26
F0.9
sI27
F-0.77
sI28
F0.45999999999999996
sI29
F0.74
sI30
F-0.64
sI31
F0.5900000000000001
sI32
F-0.53
sI33
F0.58
sI34
F0.75
sI35
F0.30000000000000004
sI36
F0.01999999999999999
sI37
F-0.44000000000000006
sI38
F-0.31000000000000005
sI39
F0.83
sI40
F-0.23000000000000007
sI41
F-0.49
sI42
F1.1800000000000002
sI43
F0.56
sI44
F0.18000000000000002
ssg5
I0
ssI95
(dp285
g3
(dp286
I0
F0.03
sI1
F-0.9900000000000001
sI2
F-0.12000000000000005
sI3
F-0.91
sI4
F0.29000000000000004
sI5
F-0.44000000000000006
sI6
F0.7799999999999999
sI7
F-0.6100000000000001
sI8
F-0.8
sI9
F-0.29000000000000004
sI10
F-0.8099999999999999
sI11
F0.11000000000000001
sI12
F-0.31000000000000005
sI13
F0.32000000000000006
sI14
F-0.66
sI15
F-0.8400000000000001
sI16
F0.5800000000000001
sI17
F2.7755575615628914e-17
sI18
F0.26
sI19
F0.28
sI20
F-0.37
sI21
F0.45000000000000007
sI22
F-0.4
sI23
F-1.07
sI24
F0.5399999999999999
sI25
F0.01999999999999999
sI26
F0.35
sI27
F0.11
sI28
F0.5800000000000001
sI29
F-0.8999999999999999
sI30
F-0.30000000000000004
sI31
F0.1
sI32
F-0.7700000000000001
sI33
F0.17
sI34
F0.61
sI35
F0.16
sI36
F0.75
sI37
F-0.53
sI38
F-0.88
sI39
F0.30000000000000004
sI40
F-0.3500000000000001
sI41
F-0.51
sI42
F-0.48
sI43
F0.57
sI44
F-0.25
ssg5
I0
ssI96
(dp287
g3
(dp288
I0
F-0.4
sI1
F0.18000000000000002
sI2
F-0.43000000000000005
sI3
F-0.24999999999999997
sI4
F0.27
sI5
F0.54
sI6
F-0.8
sI7
F0.87
sI8
F0.84
sI9
F-0.43999999999999995
sI10
F-0.010000000000000037
sI11
F0.31000000000000005
sI12
F-0.43000000000000005
sI13
F-0.24999999999999997
sI14
F-0.2500000000000001
sI15
F-0.7799999999999999
sI16
F-0.09000000000000002
sI17
F-0.4800000000000001
sI18
F-0.8599999999999999
sI19
F-0.28
sI20
F-0.22
sI21
F-0.45000000000000007
sI22
F-1.0
sI23
F0.1
sI24
F0.67
sI25
F-0.76
sI26
F-0.19
sI27
F0.23
sI28
F0.9
sI29
F-0.24999999999999997
sI30
F0.01999999999999999
sI31
F1.05
sI32
F0.87
sI33
F0.79
sI34
F0.33000000000000007
sI35
F1.03
sI36
F0.14
sI37
F-1.1800000000000002
sI38
F-0.11000000000000001
sI39
F-0.09000000000000002
sI40
F-1.04
sI41
F-0.060000000000000026
sI42
F0.71
sI43
F-1.02
sI44
F0.5000000000000001
ssg5
I0
ssI97
(dp289
g3
(dp290
I0
F-0.54
sI1
F0.87
sI2
F-0.43000000000000005
sI3
F0.64
sI4
F0.98
sI5
F0.95
sI6
F-0.39
sI7
F-0.73
sI8
F0.7699999999999999
sI9
F-0.04999999999999999
sI10
F-0.25
sI11
F0.37
sI12
F0.45999999999999996
sI13
F-1.2800000000000002
sI14
F-0.020000000000000004
sI15
F-0.1
sI16
F0.7700000000000001
sI17
F-0.47
sI18
F-1.1
sI19
F0.9800000000000001
sI20
F0.8
sI21
F-0.77
sI22
F0.08000000000000002
sI23
F0.97
sI24
F0.23999999999999996
sI25
F0.5000000000000001
sI26
F0.31000000000000005
sI27
F-0.7599999999999999
sI28
F0.18
sI29
F0.58
sI30
F0.49
sI31
F0.07
sI32
F-0.93
sI33
F0.31
sI34
F-0.57
sI35
F0.37
sI36
F0.09
sI37
F-0.04000000000000001
sI38
F-0.3400000000000001
sI39
F0.35
sI40
F-0.33000000000000007
sI41
F0.78
sI42
F-0.45000000000000007
sI43
F-0.28
sI44
F-1.2300000000000002
ssg5
I0
ssI98
(dp291
g3
(dp292
I0
F-0.07
sI1
F0.4
sI2
F0.16
sI3
F0.36
sI4
F-0.34
sI5
F-1.09
sI6
F0.5199999999999999
sI7
F0.49
sI8
F-0.28
sI9
F-0.89
sI10
F-0.78
sI11
F0.84
sI12
F1.07
sI13
F-0.71
sI14
F0.67
sI15
F0.5
sI16
F0.44999999999999996
sI17
F-1.2000000000000002
sI18
F0.3500000000000001
sI19
F-0.92
sI20
F-0.95
sI21
F0.5599999999999999
sI22
F0.43999999999999995
sI23
F0.58
sI24
F0.17
sI25
F-0.44000000000000006
sI26
F-1.01
sI27
F0.55
sI28
F0.22999999999999995
sI29
F0.10000000000000003
sI30
F-0.19000000000000003
sI31
F0.30000000000000004
sI32
F0.66
sI33
F0.66
sI34
F0.9500000000000001
sI35
F0.7100000000000001
sI36
F-0.53
sI37
F0.6100000000000001
sI38
F0.1
sI39
F-0.53
sI40
F-0.6699999999999999
sI41
F-0.03
sI42
F-0.52
sI43
F0.44000000000000006
sI44
F0.1
ssg5
I0
ssI99
(dp293
g3
(dp294
I0
F-0.34
sI1
F-0.5000000000000001
sI2
F0.64
sI3
F1.1700000000000002
sI4
F-0.7300000000000001
sI5
F0.78
sI6
F0.2600000000000001
sI7
F0.45000000000000007
sI8
F-0.51
sI9
F-0.99
sI10
F0.9700000000000001
sI11
F-1.4900000000000004
sI12
F-0.84
sI13
F-0.51
sI14
F-0.3500000000000001
sI15
F0.31000000000000005
sI16
F0.6000000000000001
sI17
F0.44000000000000006
sI18
F0.20000000000000004
sI19
F0.5000000000000001
sI20
F0.12
sI21
F-0.19
sI22
F-0.55
sI23
F-0.92
sI24
F0.6
sI25
F0.45999999999999996
sI26
F-0.4
sI27
F0.07
sI28
F0.25
sI29
F-0.76
sI30
F0.09000000000000002
sI31
F0.57
sI32
F0.20000000000000004
sI33
F0.41000000000000003
sI34
F-0.06
sI35
F0.04999999999999996
sI36
F0.08000000000000002
sI37
F-0.49
sI38
F-0.54
sI39
F0.23000000000000007
sI40
F0.14
sI41
F1.1400000000000001
sI42
F0.92
sI43
F0.58
sI44
F0.51
ssg5
I0
sssI2
(dp295
I0
(dp296
g3
(dp297
I0
F-0.9900000000000001
sI1
F0.5399999999999999
sI2
F-1.2200000000000002
sI3
F-0.15
sI4
F0.54
sI5
F0.5800000000000001
sI6
F0.18000000000000002
sI7
F0.4900000000000001
sI8
F-0.1500000000000001
sI9
F-1.04
sI10
F0.24999999999999997
sI11
F-0.6799999999999999
sI12
F-0.6900000000000001
sI13
F0.31000000000000005
sI14
F-0.77
sI15
F-0.8500000000000001
sI16
F-2.7755575615628914e-17
sI17
F0.3400000000000001
sI18
F-0.35
sI19
F0.93
sI20
F0.17
sI21
F0.8200000000000001
sI22
F-0.07
sI23
F1.0
sI24
F0.86
sI25
F0.13
sI26
F-0.3500000000000001
sI27
F0.5
sI28
F0.37
sI29
F-0.24000000000000007
sI30
F0.58
sI31
F0.29000000000000015
sI32
F0.07
sI33
F-0.32000000000000006
sI34
F-0.92
sI35
F0.45999999999999996
sI36
F0.30000000000000004
sI37
F-0.39
sI38
F0.55
sI39
F-0.24999999999999997
sI40
F0.88
sI41
F0.16
sI42
F-0.61
sI43
F-0.3700000000000001
sI44
F-0.77
sI45
F-0.9600000000000001
sI46
F-0.17
sI47
F-0.12000000000000002
sI48
F-0.25
sI49
F0.74
sI50
F0.8
sI51
F0.89
sI52
F-1.08
sI53
F-0.55
sI54
F1.0
sI55
F-0.13
sI56
F0.63
sI57
F0.42000000000000004
sI58
F0.6499999999999999
sI59
F0.76
sI60
F0.65
sI61
F0.5800000000000001
sI62
F0.6900000000000001
sI63
F-0.93
sI64
F0.8099999999999999
sI65
F-0.41000000000000003
sI66
F0.66
sI67
F-0.18000000000000002
sI68
F0.01999999999999999
sI69
F0.29000000000000004
sI70
F-0.84
sI71
F-0.35
sI72
F-0.5599999999999999
sI73
F-0.4600000000000001
sI74
F0.3500000000000001
sI75
F1.3300000000000003
sI76
F0.6300000000000001
sI77
F0.3700000000000001
sI78
F0.99
sI79
F1.2200000000000002
sI80
F-0.56
sI81
F-0.9
sI82
F-0.9199999999999999
sI83
F0.3600000000000001
sI84
F-0.2500000000000001
sI85
F0.08
sI86
F-0.71
sI87
F0.52
sI88
F-0.29000000000000004
sI89
F-0.39
sI90
F0.42000000000000004
sI91
F-1.08
sI92
F0.62
sI93
F-0.20000000000000004
sI94
F0.8200000000000001
sI95
F-0.65
sI96
F-0.36
sI97
F-2.7755575615628914e-17
sI98
F0.55
sI99
F-0.61
ssg5
I0
ssI1
(dp298
g3
(dp299
I0
F-0.86
sI1
F-0.66
sI2
F-0.61
sI3
F0.52
sI4
F0.87
sI5
F-0.21000000000000002
sI6
F-0.24999999999999997
sI7
F0.03
sI8
F-1.1
sI9
F0.18000000000000002
sI10
F0.65
sI11
F-0.62
sI12
F1.2400000000000002
sI13
F-1.06
sI14
F-0.14
sI15
F0.72
sI16
F0.62
sI17
F0.79
sI18
F-0.72
sI19
F0.8300000000000001
sI20
F0.4600000000000001
sI21
F0.39
sI22
F0.08999999999999997
sI23
F0.8400000000000001
sI24
F-0.6300000000000001
sI25
F-0.74
sI26
F-0.009999999999999981
sI27
F0.69
sI28
F-0.24000000000000002
sI29
F-0.3700000000000001
sI30
F0.5000000000000001
sI31
F-0.53
sI32
F0.92
sI33
F0.9700000000000001
sI34
F-0.83
sI35
F0.3700000000000001
sI36
F0.3400000000000001
sI37
F-0.6599999999999999
sI38
F-0.74
sI39
F0.52
sI40
F-0.06
sI41
F0.7400000000000001
sI42
F0.65
sI43
F-0.4800000000000001
sI44
F0.82
sI45
F0.64
sI46
F-0.7000000000000001
sI47
F0.78
sI48
F-0.85
sI49
F-0.43999999999999995
sI50
F0.07999999999999999
sI51
F1.1900000000000002
sI52
F-0.48
sI53
F-1.1
sI54
F-0.82
sI55
F-0.9500000000000001
sI56
F0.29000000000000004
sI57
F-1.0899999999999999
sI58
F0.29000000000000004
sI59
F-0.55
sI60
F0.49
sI61
F-0.04000000000000001
sI62
F0.51
sI63
F-0.03
sI64
F-0.8099999999999999
sI65
F1.1600000000000001
sI66
F0.21
sI67
F-0.74
sI68
F0.07
sI69
F0.03999999999999995
sI70
F-0.9600000000000001
sI71
F1.09
sI72
F1.1
sI73
F1.1900000000000002
sI74
F-0.20000000000000004
sI75
F-0.31000000000000005
sI76
F0.009999999999999981
sI77
F0.89
sI78
F0.17
sI79
F-0.42000000000000004
sI80
F0.68
sI81
F1.1
sI82
F-0.7000000000000001
sI83
F-0.15000000000000002
sI84
F0.3600000000000001
sI85
F0.1
sI86
F-0.27
sI87
F-0.21000000000000005
sI88
F-0.97
sI89
F-0.82
sI90
F-0.45999999999999996
sI91
F0.7000000000000001
sI92
F0.24
sI93
F0.30000000000000004
sI94
F0.59
sI95
F0.07
sI96
F0.44000000000000006
sI97
F-0.85
sI98
F-0.5599999999999999
sI99
F-0.7799999999999999
ssg5
I0
ssI2
(dp300
g3
(dp301
I0
F0.6499999999999999
sI1
F-0.06
sI2
F0.6
sI3
F0.61
sI4
F0.66
sI5
F-1.1300000000000001
sI6
F0.74
sI7
F0.54
sI8
F0.16
sI9
F0.33000000000000007
sI10
F-0.77
sI11
F0.56
sI12
F0.52
sI13
F-0.53
sI14
F-0.96
sI15
F-0.76
sI16
F0.6900000000000001
sI17
F0.03
sI18
F0.4
sI19
F0.25
sI20
F1.06
sI21
F0.22000000000000003
sI22
F-0.42000000000000004
sI23
F0.41000000000000003
sI24
F-0.5599999999999999
sI25
F0.31000000000000005
sI26
F-0.2
sI27
F0.07
sI28
F-0.6
sI29
F0.75
sI30
F-0.54
sI31
F0.16000000000000003
sI32
F-0.34
sI33
F-0.08999999999999997
sI34
F0.33999999999999997
sI35
F-0.7899999999999999
sI36
F0.34
sI37
F0.7899999999999999
sI38
F0.7000000000000001
sI39
F0.23999999999999996
sI40
F0.7799999999999999
sI41
F0.22000000000000006
sI42
F-0.18000000000000002
sI43
F0.22
sI44
F0.42000000000000004
sI45
F-0.15
sI46
F-0.8200000000000001
sI47
F-1.06
sI48
F1.09
sI49
F-0.54
sI50
F-0.61
sI51
F0.51
sI52
F-0.35
sI53
F0.44000000000000006
sI54
F-0.52
sI55
F-0.23000000000000007
sI56
F-0.12
sI57
F-0.28
sI58
F-0.3400000000000001
sI59
F0.05000000000000002
sI60
F-1.1
sI61
F0.95
sI62
F-0.53
sI63
F-1.2200000000000002
sI64
F-0.13999999999999999
sI65
F-0.88
sI66
F0.5
sI67
F-0.20000000000000004
sI68
F-0.16
sI69
F-0.5
sI70
F-0.8099999999999999
sI71
F0.56
sI72
F0.93
sI73
F-0.020000000000000018
sI74
F0.7100000000000001
sI75
F0.01999999999999999
sI76
F0.7200000000000001
sI77
F1.2600000000000002
sI78
F0.3800000000000001
sI79
F0.8099999999999999
sI80
F0.3400000000000001
sI81
F0.47
sI82
F0.5800000000000001
sI83
F-0.49
sI84
F-0.45000000000000007
sI85
F-0.49
sI86
F-1.1600000000000001
sI87
F0.8
sI88
F-0.35
sI89
F-0.62
sI90
F-0.49
sI91
F0.4900000000000001
sI92
F0.08
sI93
F0.55
sI94
F0.07
sI95
F0.71
sI96
F1.1300000000000001
sI97
F-0.3900000000000001
sI98
F0.4800000000000001
sI99
F-0.97
ssg5
I0
ssI3
(dp302
g3
(dp303
I0
F-0.77
sI1
F0.8999999999999999
sI2
F0.07
sI3
F-0.5599999999999999
sI4
F-0.23
sI5
F-0.13
sI6
F0.44000000000000006
sI7
F-0.12
sI8
F-0.59
sI9
F0.38
sI10
F0.71
sI11
F0.49
sI12
F-0.45000000000000007
sI13
F-1.08
sI14
F1.2300000000000002
sI15
F-0.68
sI16
F-0.29000000000000004
sI17
F-0.59
sI18
F0.6300000000000001
sI19
F0.27
sI20
F-1.2400000000000002
sI21
F-0.36
sI22
F0.7899999999999999
sI23
F-0.16
sI24
F0.8200000000000001
sI25
F0.87
sI26
F-0.58
sI27
F0.72
sI28
F-0.1
sI29
F-0.28
sI30
F-0.7300000000000001
sI31
F0.21000000000000005
sI32
F-0.85
sI33
F-0.22
sI34
F0.27
sI35
F1.3000000000000003
sI36
F-0.72
sI37
F0.65
sI38
F-0.71
sI39
F-0.39
sI40
F-0.19000000000000003
sI41
F0.53
sI42
F0.69
sI43
F0.0
sI44
F-0.04000000000000001
sI45
F-0.010000000000000037
sI46
F-0.060000000000000026
sI47
F0.6
sI48
F-0.04000000000000001
sI49
F-0.04000000000000001
sI50
F-1.05
sI51
F-0.6799999999999999
sI52
F0.5599999999999999
sI53
F-0.14
sI54
F0.31000000000000005
sI55
F0.27
sI56
F0.55
sI57
F-0.09
sI58
F0.13999999999999996
sI59
F-0.5
sI60
F0.17
sI61
F-0.6000000000000001
sI62
F0.31999999999999995
sI63
F0.21000000000000002
sI64
F-0.77
sI65
F-0.38
sI66
F0.5
sI67
F-0.74
sI68
F0.7000000000000001
sI69
F-0.24999999999999997
sI70
F-0.020000000000000018
sI71
F-0.1
sI72
F0.020000000000000046
sI73
F0.15
sI74
F0.03
sI75
F0.54
sI76
F-0.77
sI77
F-1.08
sI78
F0.74
sI79
F-0.73
sI80
F0.47
sI81
F0.24000000000000002
sI82
F-0.7000000000000001
sI83
F-0.41000000000000003
sI84
F-0.7799999999999999
sI85
F-0.62
sI86
F0.6300000000000001
sI87
F0.21
sI88
F-0.23
sI89
F-0.52
sI90
F-0.85
sI91
F1.0899999999999999
sI92
F-0.16
sI93
F-0.87
sI94
F-0.84
sI95
F-0.69
sI96
F-0.12
sI97
F-0.29000000000000004
sI98
F0.9299999999999999
sI99
F-0.98
ssg5
I0
ssI4
(dp304
g3
(dp305
I0
F0.37
sI1
F-0.25
sI2
F0.22000000000000006
sI3
F-0.9
sI4
F0.23000000000000007
sI5
F-0.53
sI6
F-1.09
sI7
F-0.08
sI8
F-0.9400000000000001
sI9
F-0.48
sI10
F-0.62
sI11
F-0.75
sI12
F-0.9199999999999999
sI13
F-0.5800000000000001
sI14
F0.72
sI15
F0.9099999999999999
sI16
F-0.3500000000000001
sI17
F0.65
sI18
F0.63
sI19
F0.020000000000000004
sI20
F-1.2000000000000002
sI21
F-0.27
sI22
F0.9600000000000001
sI23
F0.13
sI24
F-0.21000000000000002
sI25
F0.5100000000000001
sI26
F0.8099999999999999
sI27
F-0.03
sI28
F0.52
sI29
F-0.23000000000000007
sI30
F0.51
sI31
F-0.5000000000000001
sI32
F-0.5499999999999999
sI33
F0.14000000000000007
sI34
F-0.06
sI35
F-0.20000000000000004
sI36
F-0.22
sI37
F-0.48
sI38
F0.5
sI39
F-0.09000000000000002
sI40
F0.9500000000000001
sI41
F-0.13
sI42
F-0.74
sI43
F-1.01
sI44
F-1.01
sI45
F-0.5399999999999999
sI46
F0.42999999999999994
sI47
F0.86
sI48
F-0.06
sI49
F-0.74
sI50
F-0.4
sI51
F0.30000000000000016
sI52
F-0.1
sI53
F0.15000000000000002
sI54
F-0.72
sI55
F0.76
sI56
F-0.44999999999999996
sI57
F-0.51
sI58
F-0.97
sI59
F0.27
sI60
F0.89
sI61
F-0.33
sI62
F-0.9700000000000001
sI63
F0.99
sI64
F-0.63
sI65
F-0.52
sI66
F0.48
sI67
F-0.7
sI68
F0.8
sI69
F0.09
sI70
F0.26
sI71
F0.26
sI72
F-1.01
sI73
F-0.28
sI74
F-0.33000000000000007
sI75
F0.43999999999999995
sI76
F0.6900000000000001
sI77
F0.54
sI78
F0.77
sI79
F-0.07999999999999996
sI80
F0.71
sI81
F-0.66
sI82
F-0.52
sI83
F0.49
sI84
F-0.3400000000000001
sI85
F-0.8200000000000001
sI86
F-0.8300000000000001
sI87
F-0.67
sI88
F0.6900000000000002
sI89
F0.54
sI90
F-0.04000000000000001
sI91
F-0.08000000000000002
sI92
F-0.11000000000000004
sI93
F-0.95
sI94
F0.22000000000000003
sI95
F-0.35
sI96
F0.53
sI97
F-0.49
sI98
F-0.8400000000000001
sI99
F0.14
ssg5
I0
ssI5
(dp306
g3
(dp307
I0
F0.41000000000000003
sI1
F-0.7300000000000001
sI2
F-0.09
sI3
F-0.28
sI4
F-0.48
sI5
F0.30000000000000004
sI6
F-0.6400000000000001
sI7
F0.53
sI8
F-0.79
sI9
F-0.36
sI10
F0.16
sI11
F1.1400000000000001
sI12
F-0.4900000000000001
sI13
F-0.3800000000000001
sI14
F-0.15000000000000002
sI15
F-0.5000000000000001
sI16
F0.010000000000000009
sI17
F-0.22000000000000003
sI18
F-0.39
sI19
F0.8200000000000001
sI20
F0.76
sI21
F-0.7000000000000001
sI22
F-0.7000000000000001
sI23
F-0.4700000000000001
sI24
F-0.6900000000000001
sI25
F-0.36
sI26
F-0.8300000000000001
sI27
F-0.18
sI28
F0.03
sI29
F0.009999999999999995
sI30
F-1.1800000000000002
sI31
F0.32
sI32
F0.93
sI33
F0.6799999999999999
sI34
F1.1
sI35
F0.85
sI36
F-0.15
sI37
F-0.5900000000000001
sI38
F-0.20000000000000004
sI39
F-0.3700000000000001
sI40
F0.019999999999999934
sI41
F-0.5800000000000001
sI42
F0.11000000000000015
sI43
F0.13
sI44
F0.38
sI45
F-0.33000000000000007
sI46
F0.09000000000000002
sI47
F-0.61
sI48
F-0.26
sI49
F0.17
sI50
F-0.10999999999999999
sI51
F0.72
sI52
F0.5700000000000001
sI53
F-1.1900000000000002
sI54
F-0.97
sI55
F-0.9199999999999999
sI56
F-0.8
sI57
F0.8400000000000001
sI58
F0.51
sI59
F0.8200000000000001
sI60
F-0.76
sI61
F0.30000000000000004
sI62
F-0.5599999999999999
sI63
F0.22000000000000003
sI64
F-0.04000000000000001
sI65
F-0.26
sI66
F-0.6799999999999999
sI67
F-0.26
sI68
F-0.96
sI69
F0.39
sI70
F0.7000000000000001
sI71
F-0.30000000000000016
sI72
F-0.62
sI73
F0.11000000000000004
sI74
F-1.11
sI75
F0.48
sI76
F0.98
sI77
F0.66
sI78
F-1.1600000000000001
sI79
F0.96
sI80
F0.48
sI81
F-1.07
sI82
F-0.77
sI83
F0.28
sI84
F0.27
sI85
F0.58
sI86
F-0.76
sI87
F-0.53
sI88
F0.22999999999999995
sI89
F-0.01999999999999999
sI90
F-0.9
sI91
F-0.6499999999999999
sI92
F0.39
sI93
F-0.010000000000000009
sI94
F0.4700000000000001
sI95
F0.22
sI96
F-0.67
sI97
F1.09
sI98
F0.9900000000000001
sI99
F-0.67
ssg5
I0
ssI6
(dp308
g3
(dp309
I0
F-0.6500000000000001
sI1
F-1.04
sI2
F-0.6
sI3
F0.42000000000000004
sI4
F0.9
sI5
F0.22000000000000006
sI6
F0.39
sI7
F0.29000000000000004
sI8
F1.4000000000000004
sI9
F-0.16
sI10
F0.52
sI11
F1.1700000000000002
sI12
F0.74
sI13
F0.83
sI14
F-1.4200000000000004
sI15
F0.51
sI16
F1.11
sI17
F-0.27
sI18
F0.13
sI19
F-0.19000000000000003
sI20
F-0.21000000000000002
sI21
F0.56
sI22
F-0.14999999999999997
sI23
F0.75
sI24
F0.06
sI25
F0.65
sI26
F0.21
sI27
F0.33999999999999997
sI28
F-0.63
sI29
F0.8099999999999999
sI30
F-0.39
sI31
F-0.29000000000000004
sI32
F0.41999999999999993
sI33
F-0.16
sI34
F-0.04999999999999996
sI35
F0.11000000000000001
sI36
F1.08
sI37
F-0.25
sI38
F0.23999999999999996
sI39
F-0.04000000000000001
sI40
F-0.68
sI41
F-0.8200000000000001
sI42
F0.32000000000000006
sI43
F0.52
sI44
F1.02
sI45
F0.4
sI46
F-0.21000000000000002
sI47
F-0.79
sI48
F-0.9099999999999999
sI49
F0.34
sI50
F-0.59
sI51
F-0.3400000000000001
sI52
F0.3400000000000001
sI53
F0.13999999999999996
sI54
F-0.38
sI55
F-0.58
sI56
F-0.71
sI57
F0.73
sI58
F0.42000000000000004
sI59
F0.79
sI60
F0.8099999999999999
sI61
F0.82
sI62
F0.08
sI63
F-0.55
sI64
F0.78
sI65
F-0.57
sI66
F-0.13
sI67
F-0.16
sI68
F-0.27000000000000013
sI69
F-0.16
sI70
F0.18000000000000002
sI71
F-0.06000000000000005
sI72
F-0.5900000000000001
sI73
F0.49
sI74
F-0.37
sI75
F-0.23
sI76
F-0.7999999999999999
sI77
F0.0
sI78
F1.1
sI79
F0.64
sI80
F0.41000000000000003
sI81
F0.99
sI82
F0.5800000000000001
sI83
F-0.82
sI84
F0.8500000000000001
sI85
F0.6200000000000001
sI86
F0.6700000000000002
sI87
F-0.30000000000000004
sI88
F-0.89
sI89
F-0.24000000000000007
sI90
F-0.32
sI91
F0.32000000000000006
sI92
F-0.61
sI93
F-0.16
sI94
F-0.8200000000000001
sI95
F0.45999999999999996
sI96
F0.47
sI97
F0.9799999999999999
sI98
F1.2700000000000002
sI99
F0.01999999999999999
ssg5
I0
ssI7
(dp310
g3
(dp311
I0
F-0.32000000000000006
sI1
F0.11
sI2
F0.18000000000000002
sI3
F-0.3500000000000001
sI4
F0.8
sI5
F-0.14
sI6
F0.19000000000000003
sI7
F-0.52
sI8
F-1.3900000000000003
sI9
F0.4700000000000001
sI10
F-0.6200000000000001
sI11
F0.9700000000000001
sI12
F0.86
sI13
F0.32000000000000006
sI14
F0.8300000000000001
sI15
F-0.61
sI16
F-0.5499999999999999
sI17
F0.3400000000000001
sI18
F-1.01
sI19
F0.4900000000000001
sI20
F-0.07
sI21
F-0.94
sI22
F-0.9
sI23
F-1.1
sI24
F-0.53
sI25
F1.07
sI26
F0.69
sI27
F0.4600000000000001
sI28
F-0.13
sI29
F0.87
sI30
F-1.0899999999999999
sI31
F-0.38
sI32
F-0.6699999999999999
sI33
F0.67
sI34
F-0.30000000000000004
sI35
F0.73
sI36
F0.10000000000000003
sI37
F-0.86
sI38
F0.19000000000000003
sI39
F0.21000000000000005
sI40
F-0.4900000000000001
sI41
F-0.84
sI42
F0.65
sI43
F-0.8799999999999999
sI44
F-0.7300000000000001
sI45
F-0.30000000000000004
sI46
F0.29000000000000004
sI47
F0.58
sI48
F-0.40000000000000013
sI49
F0.49
sI50
F0.74
sI51
F0.07
sI52
F0.19000000000000003
sI53
F-0.78
sI54
F0.27000000000000013
sI55
F0.11000000000000004
sI56
F0.29000000000000004
sI57
F-0.32
sI58
F-0.75
sI59
F0.3500000000000001
sI60
F0.9500000000000001
sI61
F-0.93
sI62
F0.97
sI63
F-1.0
sI64
F0.1500000000000001
sI65
F-0.82
sI66
F0.6
sI67
F0.89
sI68
F-0.009999999999999995
sI69
F-0.23000000000000007
sI70
F1.1800000000000002
sI71
F0.48
sI72
F0.63
sI73
F-0.18000000000000002
sI74
F-0.51
sI75
F-0.5299999999999999
sI76
F-0.32000000000000006
sI77
F0.8500000000000001
sI78
F-0.55
sI79
F0.39
sI80
F-0.24999999999999997
sI81
F0.9900000000000001
sI82
F0.21
sI83
F-0.21000000000000005
sI84
F-0.77
sI85
F0.07999999999999999
sI86
F-0.66
sI87
F0.75
sI88
F0.23999999999999996
sI89
F0.6000000000000001
sI90
F-1.08
sI91
F-0.76
sI92
F0.020000000000000004
sI93
F-1.02
sI94
F0.56
sI95
F-1.1800000000000002
sI96
F0.9800000000000001
sI97
F0.62
sI98
F0.20000000000000004
sI99
F-0.25
ssg5
I0
ssI8
(dp312
g3
(dp313
I0
F-0.41000000000000003
sI1
F-0.6000000000000001
sI2
F0.79
sI3
F0.76
sI4
F-0.06000000000000011
sI5
F-0.39
sI6
F0.6000000000000001
sI7
F-0.81
sI8
F-0.7
sI9
F-0.3500000000000001
sI10
F0.16
sI11
F-0.8099999999999999
sI12
F-0.93
sI13
F0.49
sI14
F0.41999999999999993
sI15
F-1.09
sI16
F0.22000000000000006
sI17
F0.51
sI18
F-0.51
sI19
F0.21999999999999995
sI20
F-0.55
sI21
F0.22000000000000003
sI22
F0.19
sI23
F0.13
sI24
F0.1
sI25
F-0.43000000000000005
sI26
F0.69
sI27
F-0.48
sI28
F1.1700000000000002
sI29
F0.9199999999999999
sI30
F0.31000000000000005
sI31
F-0.27
sI32
F0.47
sI33
F1.1900000000000002
sI34
F0.55
sI35
F0.06
sI36
F0.20000000000000004
sI37
F-0.54
sI38
F-0.51
sI39
F0.86
sI40
F0.4800000000000001
sI41
F-0.03
sI42
F0.04999999999999999
sI43
F-0.21000000000000002
sI44
F-0.63
sI45
F-0.8
sI46
F-0.20000000000000004
sI47
F-0.6900000000000001
sI48
F0.55
sI49
F1.4000000000000004
sI50
F-0.44000000000000006
sI51
F0.20000000000000004
sI52
F0.94
sI53
F0.24999999999999997
sI54
F0.39
sI55
F-0.03
sI56
F-0.14
sI57
F-0.30000000000000004
sI58
F0.8099999999999999
sI59
F-0.32000000000000006
sI60
F0.18000000000000002
sI61
F-0.1
sI62
F0.5499999999999999
sI63
F-0.9400000000000001
sI64
F0.18000000000000002
sI65
F0.05000000000000002
sI66
F-0.55
sI67
F0.5700000000000002
sI68
F-0.63
sI69
F0.07
sI70
F0.6699999999999999
sI71
F0.5800000000000001
sI72
F0.5599999999999999
sI73
F0.7
sI74
F-0.32999999999999996
sI75
F-0.14999999999999997
sI76
F-0.13000000000000006
sI77
F0.87
sI78
F0.22000000000000006
sI79
F-0.92
sI80
F0.7000000000000001
sI81
F0.64
sI82
F-1.0
sI83
F0.42000000000000015
sI84
F0.7
sI85
F-0.05000000000000002
sI86
F-0.14
sI87
F-0.07000000000000012
sI88
F1.4500000000000004
sI89
F0.45999999999999996
sI90
F0.67
sI91
F-0.9099999999999999
sI92
F1.3000000000000003
sI93
F0.019999999999999934
sI94
F1.2200000000000002
sI95
F0.27000000000000013
sI96
F-1.09
sI97
F0.61
sI98
F0.10999999999999999
sI99
F0.4700000000000001
ssg5
I0
ssI9
(dp314
g3
(dp315
I0
F-0.83
sI1
F-0.29000000000000004
sI2
F1.3400000000000003
sI3
F0.30000000000000004
sI4
F-0.7899999999999999
sI5
F0.04000000000000001
sI6
F0.56
sI7
F0.9900000000000001
sI8
F-0.08000000000000002
sI9
F-0.95
sI10
F-0.55
sI11
F-0.10000000000000003
sI12
F0.7000000000000001
sI13
F0.6900000000000001
sI14
F0.44000000000000006
sI15
F-0.33000000000000007
sI16
F0.31000000000000005
sI17
F-0.8500000000000001
sI18
F0.25
sI19
F0.20000000000000004
sI20
F-0.79
sI21
F-0.89
sI22
F0.43000000000000005
sI23
F0.43000000000000005
sI24
F0.75
sI25
F-0.76
sI26
F0.51
sI27
F0.6200000000000001
sI28
F0.78
sI29
F0.94
sI30
F-0.21999999999999995
sI31
F-0.6799999999999999
sI32
F-0.7899999999999999
sI33
F0.99
sI34
F-0.47
sI35
F-0.18000000000000002
sI36
F-0.67
sI37
F-0.43000000000000005
sI38
F-0.050000000000000044
sI39
F-0.15
sI40
F-0.20000000000000004
sI41
F-0.9800000000000001
sI42
F0.16
sI43
F-0.8400000000000001
sI44
F-0.71
sI45
F0.4700000000000001
sI46
F0.1
sI47
F0.38
sI48
F0.28
sI49
F-0.52
sI50
F-0.38
sI51
F0.15
sI52
F-0.66
sI53
F0.59
sI54
F-0.55
sI55
F-0.49
sI56
F-0.72
sI57
F0.41000000000000003
sI58
F-1.3300000000000003
sI59
F-0.7
sI60
F0.62
sI61
F0.88
sI62
F-1.2500000000000002
sI63
F-0.54
sI64
F0.6799999999999999
sI65
F0.23000000000000007
sI66
F0.050000000000000044
sI67
F0.08000000000000002
sI68
F0.33999999999999997
sI69
F-0.14999999999999997
sI70
F-0.53
sI71
F0.5900000000000001
sI72
F-0.51
sI73
F-0.56
sI74
F0.9
sI75
F0.5599999999999999
sI76
F0.09000000000000001
sI77
F0.4700000000000001
sI78
F0.009999999999999981
sI79
F-0.44000000000000006
sI80
F-0.7000000000000001
sI81
F0.5599999999999999
sI82
F-0.67
sI83
F0.08000000000000002
sI84
F-0.5199999999999999
sI85
F0.64
sI86
F-0.59
sI87
F0.74
sI88
F0.009999999999999981
sI89
F0.04999999999999996
sI90
F-0.19000000000000003
sI91
F0.9800000000000001
sI92
F0.01999999999999999
sI93
F-0.4
sI94
F-0.52
sI95
F0.4700000000000001
sI96
F0.15
sI97
F-1.4800000000000004
sI98
F-0.8899999999999999
sI99
F0.7500000000000001
ssg5
I0
ssI10
(dp316
g3
(dp317
I0
F-0.65
sI1
F-0.44000000000000006
sI2
F-0.8500000000000001
sI3
F-0.67
sI4
F-0.23
sI5
F-0.83
sI6
F0.58
sI7
F-0.09
sI8
F0.26
sI9
F1.05
sI10
F-0.58
sI11
F-0.7699999999999999
sI12
F1.3400000000000003
sI13
F0.16
sI14
F-0.99
sI15
F0.9800000000000001
sI16
F0.5000000000000001
sI17
F1.19
sI18
F-0.55
sI19
F0.5
sI20
F0.0
sI21
F-0.2500000000000001
sI22
F-0.56
sI23
F-0.3900000000000001
sI24
F-0.14
sI25
F-0.42000000000000004
sI26
F1.04
sI27
F0.99
sI28
F0.30000000000000004
sI29
F-0.29000000000000004
sI30
F0.22000000000000003
sI31
F-0.5
sI32
F-0.4700000000000001
sI33
F-0.32
sI34
F0.62
sI35
F-0.76
sI36
F-1.1
sI37
F-0.40000000000000013
sI38
F-2.7755575615628914e-17
sI39
F-0.10999999999999999
sI40
F0.8200000000000001
sI41
F0.29000000000000004
sI42
F0.84
sI43
F0.91
sI44
F0.5900000000000001
sI45
F-0.41000000000000003
sI46
F-0.61
sI47
F1.05
sI48
F-0.72
sI49
F-1.3400000000000003
sI50
F-0.03
sI51
F0.07
sI52
F0.23000000000000007
sI53
F0.08000000000000002
sI54
F-0.6799999999999999
sI55
F0.24000000000000007
sI56
F0.30000000000000004
sI57
F-0.6799999999999999
sI58
F0.8
sI59
F-0.5900000000000001
sI60
F1.1700000000000002
sI61
F0.8999999999999999
sI62
F-0.13000000000000006
sI63
F-0.39
sI64
F0.55
sI65
F1.1800000000000002
sI66
F-0.67
sI67
F1.07
sI68
F-0.65
sI69
F-0.51
sI70
F-0.020000000000000018
sI71
F0.16
sI72
F-0.4900000000000001
sI73
F0.26
sI74
F-0.37
sI75
F-1.09
sI76
F0.6799999999999999
sI77
F-1.08
sI78
F-0.5900000000000001
sI79
F0.17
sI80
F-0.16
sI81
F0.04000000000000001
sI82
F-0.7300000000000001
sI83
F0.88
sI84
F0.44000000000000006
sI85
F0.4900000000000001
sI86
F-0.04000000000000001
sI87
F0.49
sI88
F-0.44000000000000006
sI89
F-0.4
sI90
F-0.49
sI91
F-0.8
sI92
F-0.36
sI93
F-0.30000000000000004
sI94
F-1.1
sI95
F-0.5000000000000001
sI96
F0.31000000000000005
sI97
F-0.9700000000000001
sI98
F0.09999999999999998
sI99
F1.1800000000000002
ssg5
I0
ssI11
(dp318
g3
(dp319
I0
F0.45999999999999996
sI1
F-0.16
sI2
F-1.6000000000000005
sI3
F-0.55
sI4
F0.24000000000000007
sI5
F-0.06
sI6
F-0.78
sI7
F1.05
sI8
F0.4700000000000001
sI9
F0.7000000000000001
sI10
F0.69
sI11
F-0.8099999999999999
sI12
F0.9299999999999999
sI13
F0.43000000000000016
sI14
F0.86
sI15
F-0.76
sI16
F0.09000000000000001
sI17
F0.51
sI18
F0.43000000000000005
sI19
F-0.45000000000000007
sI20
F0.98
sI21
F-0.63
sI22
F0.31000000000000005
sI23
F0.6
sI24
F0.25
sI25
F-0.53
sI26
F-0.54
sI27
F-0.33000000000000007
sI28
F1.0
sI29
F-0.9799999999999999
sI30
F1.1300000000000001
sI31
F1.06
sI32
F0.62
sI33
F-0.7000000000000001
sI34
F1.0
sI35
F-0.10999999999999999
sI36
F-0.14
sI37
F0.5599999999999999
sI38
F0.6900000000000001
sI39
F-0.06
sI40
F-0.42000000000000004
sI41
F-0.20000000000000004
sI42
F-0.07
sI43
F-0.23000000000000007
sI44
F1.2300000000000002
sI45
F-0.8800000000000001
sI46
F-0.91
sI47
F0.08000000000000002
sI48
F-0.7999999999999999
sI49
F0.8099999999999999
sI50
F0.8800000000000001
sI51
F-0.7799999999999999
sI52
F0.23000000000000007
sI53
F-0.5000000000000001
sI54
F-0.53
sI55
F-0.9099999999999999
sI56
F-0.3700000000000001
sI57
F-0.84
sI58
F-0.45999999999999996
sI59
F-0.9500000000000001
sI60
F-0.43000000000000005
sI61
F-0.17
sI62
F-0.28
sI63
F-0.28
sI64
F-0.18000000000000002
sI65
F0.22000000000000006
sI66
F0.78
sI67
F0.12999999999999995
sI68
F0.6000000000000001
sI69
F0.94
sI70
F0.8
sI71
F0.8
sI72
F-0.2
sI73
F-0.64
sI74
F-0.79
sI75
F0.04000000000000001
sI76
F0.27
sI77
F-0.69
sI78
F0.13
sI79
F-0.72
sI80
F0.17
sI81
F0.74
sI82
F0.9900000000000001
sI83
F0.29000000000000004
sI84
F-0.78
sI85
F-1.01
sI86
F0.07
sI87
F0.29000000000000004
sI88
F-0.04000000000000001
sI89
F0.8999999999999999
sI90
F-0.54
sI91
F-0.26
sI92
F0.86
sI93
F0.6000000000000001
sI94
F-0.7100000000000001
sI95
F0.05000000000000002
sI96
F0.6900000000000001
sI97
F0.7999999999999999
sI98
F0.63
sI99
F0.7700000000000001
ssg5
I0
ssI12
(dp320
g3
(dp321
I0
F-1.4400000000000004
sI1
F0.6699999999999999
sI2
F-0.8099999999999999
sI3
F-0.74
sI4
F-0.77
sI5
F0.5700000000000001
sI6
F-0.8700000000000001
sI7
F0.20000000000000004
sI8
F0.03
sI9
F-0.23
sI10
F0.22
sI11
F-0.8600000000000001
sI12
F-0.7500000000000001
sI13
F0.41000000000000003
sI14
F-0.24999999999999997
sI15
F0.58
sI16
F0.84
sI17
F0.33000000000000007
sI18
F-0.5900000000000001
sI19
F0.38
sI20
F-0.45999999999999996
sI21
F-0.16000000000000011
sI22
F-0.8200000000000001
sI23
F-0.06
sI24
F0.3900000000000001
sI25
F0.51
sI26
F-0.17
sI27
F0.92
sI28
F0.06
sI29
F0.11000000000000001
sI30
F-0.08000000000000002
sI31
F-0.94
sI32
F-0.22000000000000006
sI33
F-0.86
sI34
F-0.010000000000000037
sI35
F0.3600000000000001
sI36
F0.81
sI37
F0.0
sI38
F-0.04000000000000001
sI39
F0.4900000000000001
sI40
F0.64
sI41
F-0.47
sI42
F0.53
sI43
F0.4
sI44
F0.76
sI45
F0.7400000000000001
sI46
F0.19000000000000003
sI47
F-1.0
sI48
F-0.44000000000000006
sI49
F0.14
sI50
F0.09999999999999998
sI51
F-0.5800000000000001
sI52
F-0.32
sI53
F0.66
sI54
F-0.86
sI55
F0.7200000000000001
sI56
F0.28
sI57
F-0.5
sI58
F-0.74
sI59
F0.7799999999999999
sI60
F0.06
sI61
F0.24
sI62
F0.9
sI63
F-1.05
sI64
F0.35
sI65
F-0.48
sI66
F0.12000000000000002
sI67
F0.5700000000000001
sI68
F0.77
sI69
F-1.1700000000000002
sI70
F-0.21000000000000005
sI71
F0.26
sI72
F0.6599999999999999
sI73
F0.28
sI74
F0.37
sI75
F0.28
sI76
F-0.38
sI77
F-0.41000000000000003
sI78
F0.7500000000000001
sI79
F-0.07999999999999999
sI80
F-0.42000000000000004
sI81
F-0.8500000000000001
sI82
F-0.7799999999999999
sI83
F0.23
sI84
F0.4600000000000001
sI85
F-0.36
sI86
F0.63
sI87
F0.38
sI88
F-0.94
sI89
F0.82
sI90
F-0.78
sI91
F-0.24000000000000002
sI92
F-0.18000000000000002
sI93
F0.97
sI94
F-0.47
sI95
F0.20000000000000004
sI96
F-0.04
sI97
F0.23999999999999996
sI98
F-0.07999999999999999
sI99
F-0.32
ssg5
I0
ssI13
(dp322
g3
(dp323
I0
F-0.21000000000000002
sI1
F0.33
sI2
F-1.0
sI3
F0.65
sI4
F-0.10000000000000003
sI5
F0.43000000000000005
sI6
F0.38
sI7
F0.4600000000000001
sI8
F0.5900000000000001
sI9
F-0.88
sI10
F-0.38
sI11
F-0.51
sI12
F-1.2100000000000002
sI13
F-0.9900000000000001
sI14
F-0.27
sI15
F0.19000000000000003
sI16
F-0.24000000000000007
sI17
F0.61
sI18
F-0.32000000000000006
sI19
F1.2100000000000002
sI20
F-0.9400000000000001
sI21
F1.12
sI22
F1.1700000000000002
sI23
F0.53
sI24
F0.66
sI25
F0.8099999999999999
sI26
F0.22000000000000003
sI27
F0.34
sI28
F-0.9500000000000001
sI29
F0.4900000000000001
sI30
F-0.8599999999999999
sI31
F-0.14
sI32
F-0.77
sI33
F-0.9899999999999999
sI34
F-1.3100000000000003
sI35
F0.67
sI36
F1.1
sI37
F0.32000000000000006
sI38
F0.13
sI39
F-0.23
sI40
F0.86
sI41
F-0.6499999999999999
sI42
F-0.34
sI43
F0.38
sI44
F-0.14
sI45
F-1.0
sI46
F-0.8099999999999999
sI47
F1.1
sI48
F-0.24000000000000007
sI49
F0.29000000000000004
sI50
F0.87
sI51
F0.20000000000000004
sI52
F0.060000000000000026
sI53
F0.41000000000000003
sI54
F0.5100000000000001
sI55
F-0.73
sI56
F0.18
sI57
F0.24000000000000002
sI58
F0.62
sI59
F-0.8900000000000001
sI60
F-0.31000000000000005
sI61
F0.7000000000000001
sI62
F-0.6300000000000001
sI63
F0.009999999999999995
sI64
F-1.06
sI65
F-0.24000000000000002
sI66
F0.11
sI67
F0.15
sI68
F0.43000000000000005
sI69
F0.18
sI70
F-0.75
sI71
F-0.78
sI72
F-1.05
sI73
F-0.8900000000000001
sI74
F-0.29
sI75
F0.13
sI76
F-0.8
sI77
F0.15
sI78
F1.06
sI79
F-0.44000000000000006
sI80
F-0.42000000000000004
sI81
F-1.02
sI82
F1.07
sI83
F-0.08000000000000002
sI84
F-0.79
sI85
F-0.6
sI86
F0.89
sI87
F-0.6199999999999999
sI88
F0.7100000000000001
sI89
F-0.19
sI90
F-1.09
sI91
F0.9500000000000001
sI92
F-0.56
sI93
F-1.03
sI94
F-0.64
sI95
F0.10999999999999999
sI96
F-0.5399999999999999
sI97
F-0.04000000000000001
sI98
F0.6900000000000001
sI99
F1.0
ssg5
I0
sss.